
========================================================================

** ELF Header Information

    File Name: 01_freertos_template\01_freertos_template.axf

    Machine class: ELFCLASS32 (32-bit)
    Data encoding: ELFDATA2LSB (Little endian)
    Header version: EV_CURRENT (Current version)
    Operating System ABI: none
    ABI Version: 0
    File Type: ET_EXEC (Executable) (2)
    Machine: EM_ARM (ARM)

    Image Entry point: 0x080000ed
    Flags: EF_ARM_HASENTRY + EF_ARM_ABI_FLOAT_SOFT (0x05000202)

    ARM ELF revision: 5 (ABI version 2)

    Conforms to Soft float procedure-call standard

    Built with
    Component: ARM Compiler 5.06 update 5 (build 528) Tool: armasm [4d35e1]
    Component: ARM Compiler 5.06 update 5 (build 528) Tool: armlink [4d35e2]

    Header size: 52 bytes (0x34)
    Program header entry size: 32 bytes (0x20)
    Section header entry size: 40 bytes (0x28)

    Program header entries: 1
    Section header entries: 16

    Program header offset: 885884 (0x000d847c)
    Section header offset: 885916 (0x000d849c)

    Section header string table index: 15

========================================================================

** Program header #0 (PT_LOAD) [PF_X + PF_W + PF_R + PF_ARM_ENTRY]
    Size : 29880 bytes (20496 bytes in file)
    Virtual address: 0x08000000 (Alignment 8)


========================================================================

** Section #1 'ER_IROM1' (SHT_PROGBITS) [SHF_ALLOC + SHF_EXECINSTR]
    Size   : 20296 bytes (alignment 4)
    Address: 0x08000000

    $d.realdata
    RESET
    __Vectors
        0x08000000:    20002570    p%.     DCD    536880496
        0x08000004:    08000199    ....    DCD    134218137
        0x08000008:    080027d9    .'..    DCD    134227929
        0x0800000c:    08001d05    ....    DCD    134225157
        0x08000010:    080027d1    .'..    DCD    134227921
        0x08000014:    0800031f    ....    DCD    134218527
        0x08000018:    08002ef5    ....    DCD    134229749
        0x0800001c:    00000000    ....    DCD    0
        0x08000020:    00000000    ....    DCD    0
        0x08000024:    00000000    ....    DCD    0
        0x08000028:    00000000    ....    DCD    0
        0x0800002c:    08000101    ....    DCD    134217985
        0x08000030:    08000321    !...    DCD    134218529
        0x08000034:    00000000    ....    DCD    0
        0x08000038:    08000145    E...    DCD    134218053
        0x0800003c:    08002b3d    =+..    DCD    134228797
        0x08000040:    080001b3    ....    DCD    134218163
        0x08000044:    080001b3    ....    DCD    134218163
        0x08000048:    080001b3    ....    DCD    134218163
        0x0800004c:    080001b3    ....    DCD    134218163
        0x08000050:    080001b3    ....    DCD    134218163
        0x08000054:    080001b3    ....    DCD    134218163
        0x08000058:    080001b3    ....    DCD    134218163
        0x0800005c:    080001b3    ....    DCD    134218163
        0x08000060:    080001b3    ....    DCD    134218163
        0x08000064:    080001b3    ....    DCD    134218163
        0x08000068:    080001b3    ....    DCD    134218163
        0x0800006c:    080001b3    ....    DCD    134218163
        0x08000070:    080001b3    ....    DCD    134218163
        0x08000074:    080001b3    ....    DCD    134218163
        0x08000078:    080001b3    ....    DCD    134218163
        0x0800007c:    080001b3    ....    DCD    134218163
        0x08000080:    080001b3    ....    DCD    134218163
        0x08000084:    080001b3    ....    DCD    134218163
        0x08000088:    080001b3    ....    DCD    134218163
        0x0800008c:    080001b3    ....    DCD    134218163
        0x08000090:    080001b3    ....    DCD    134218163
        0x08000094:    080001b3    ....    DCD    134218163
        0x08000098:    080001b3    ....    DCD    134218163
        0x0800009c:    080001b3    ....    DCD    134218163
        0x080000a0:    080001b3    ....    DCD    134218163
        0x080000a4:    080001b3    ....    DCD    134218163
        0x080000a8:    080001b3    ....    DCD    134218163
        0x080000ac:    080001b3    ....    DCD    134218163
        0x080000b0:    080001b3    ....    DCD    134218163
        0x080000b4:    080001b3    ....    DCD    134218163
        0x080000b8:    08002be9    .+..    DCD    134228969
        0x080000bc:    080001b3    ....    DCD    134218163
        0x080000c0:    080001b3    ....    DCD    134218163
        0x080000c4:    080001b3    ....    DCD    134218163
        0x080000c8:    080001b3    ....    DCD    134218163
        0x080000cc:    080001b3    ....    DCD    134218163
        0x080000d0:    080001b3    ....    DCD    134218163
        0x080000d4:    080001b3    ....    DCD    134218163
        0x080000d8:    080001b3    ....    DCD    134218163
        0x080000dc:    080001b3    ....    DCD    134218163
        0x080000e0:    08000323    #...    DCD    134218531
        0x080000e4:    080001b3    ....    DCD    134218163
        0x080000e8:    080001b3    ....    DCD    134218163
    $t
    .ARM.Collect$$$$00000000
    .ARM.Collect$$$$00000001
    __Vectors_End
    __main
    _main_stk
        0x080000ec:    f8dfd00c    ....    LDR      sp,__lit__00000000 ; [0x80000fc] = 0x20002570
    .ARM.Collect$$$$00000004
    _main_scatterload
        0x080000f0:    f000f8d8    ....    BL       __scatterload ; 0x80002a4
    .ARM.Collect$$$$00000008
    .ARM.Collect$$$$0000000A
    .ARM.Collect$$$$0000000B
    __main_after_scatterload
    _main_clock
    _main_cpp_init
    _main_init
        0x080000f4:    4800        .H      LDR      r0,[pc,#0] ; [0x80000f8] = 0x8002f43
        0x080000f6:    4700        .G      BX       r0
    $d
        0x080000f8:    08002f43    C/..    DCD    134229827
    .ARM.Collect$$$$00002712
    __lit__00000000
    .ARM.Collect$$$$0000000D
    .ARM.Collect$$$$0000000F
    __rt_final_cpp
    __rt_final_exit
        0x080000fc:    20002570    p%.     DCD    536880496
    $t
    .emb_text
    SVC_Handler
        0x08000100:    4b22        "K      LDR      r3,[pc,#136] ; [0x800018c] = 0x20000014
        0x08000102:    6819        .h      LDR      r1,[r3,#0]
        0x08000104:    6808        .h      LDR      r0,[r1,#0]
        0x08000106:    e8b00ff0    ....    LDM      r0!,{r4-r11}
        0x0800010a:    f3808809    ....    MSR      PSP,r0
        0x0800010e:    f3bf8f6f    ..o.    ISB      
        0x08000112:    f04f0000    O...    MOV      r0,#0
        0x08000116:    f3808811    ....    MSR      BASEPRI,r0
        0x0800011a:    f04e0e0d    N...    ORR      lr,lr,#0xd
        0x0800011e:    4770        pG      BX       lr
    $d
        0x08000120:    00000000    ....    DCD    0
    $t
    __asm___6_port_c_39a90d8d__prvStartFirstTask
        0x08000124:    4806        .H      LDR      r0,[pc,#24] ; [0x8000140] = 0xe000ed08
        0x08000126:    6800        .h      LDR      r0,[r0,#0]
        0x08000128:    6800        .h      LDR      r0,[r0,#0]
        0x0800012a:    f3808808    ....    MSR      MSP,r0
        0x0800012e:    b662        b.      CPSIE    i
        0x08000130:    b661        a.      CPSIE    f
        0x08000132:    f3bf8f4f    ..O.    DSB      
        0x08000136:    f3bf8f6f    ..o.    ISB      
        0x0800013a:    df00        ..      SVC      #0x0 ; formerly SWI
        0x0800013c:    bf00        ..      NOP      
        0x0800013e:    bf00        ..      NOP      
    $d
        0x08000140:    e000ed08    ....    DCD    3758157064
    $t
    PendSV_Handler
        0x08000144:    f3ef8009    ....    MRS      r0,PSP
        0x08000148:    f3bf8f6f    ..o.    ISB      
        0x0800014c:    4b0f        .K      LDR      r3,[pc,#60] ; [0x800018c] = 0x20000014
        0x0800014e:    681a        .h      LDR      r2,[r3,#0]
        0x08000150:    e9200ff0     ...    STMDB    r0!,{r4-r11}
        0x08000154:    6010        .`      STR      r0,[r2,#0]
        0x08000156:    b508        ..      PUSH     {r3,lr}
        0x08000158:    f04f0050    O.P.    MOV      r0,#0x50
        0x0800015c:    f3808811    ....    MSR      BASEPRI,r0
        0x08000160:    f3bf8f4f    ..O.    DSB      
        0x08000164:    f3bf8f6f    ..o.    ISB      
        0x08000168:    f003fdc0    ....    BL       vTaskSwitchContext ; 0x8003cec
        0x0800016c:    f04f0000    O...    MOV      r0,#0
        0x08000170:    f3808811    ....    MSR      BASEPRI,r0
        0x08000174:    e8bd4008    ...@    POP      {r3,lr}
        0x08000178:    6819        .h      LDR      r1,[r3,#0]
        0x0800017a:    6808        .h      LDR      r0,[r1,#0]
        0x0800017c:    e8b00ff0    ....    LDM      r0!,{r4-r11}
        0x08000180:    f3808809    ....    MSR      PSP,r0
        0x08000184:    f3bf8f6f    ..o.    ISB      
        0x08000188:    4770        pG      BX       lr
        0x0800018a:    bf00        ..      NOP      
    $d
        0x0800018c:    20000014    ...     DCD    536870932
    $t
    vPortGetIPSR
        0x08000190:    f3ef8005    ....    MRS      r0,IPSR
        0x08000194:    4770        pG      BX       lr
        0x08000196:    0000        ..      MOVS     r0,r0
    .text
    Reset_Handler
        0x08000198:    4806        .H      LDR      r0,[pc,#24] ; [0x80001b4] = 0x8002be5
        0x0800019a:    4780        .G      BLX      r0
        0x0800019c:    4806        .H      LDR      r0,[pc,#24] ; [0x80001b8] = 0x80000ed
        0x0800019e:    4700        .G      BX       r0
        0x080001a0:    e7fe        ..      B        0x80001a0 ; Reset_Handler + 8
        0x080001a2:    e7fe        ..      B        0x80001a2 ; Reset_Handler + 10
        0x080001a4:    e7fe        ..      B        0x80001a4 ; Reset_Handler + 12
        0x080001a6:    e7fe        ..      B        0x80001a6 ; Reset_Handler + 14
        0x080001a8:    e7fe        ..      B        0x80001a8 ; Reset_Handler + 16
        0x080001aa:    e7fe        ..      B        0x80001aa ; Reset_Handler + 18
        0x080001ac:    e7fe        ..      B        0x80001ac ; Reset_Handler + 20
        0x080001ae:    e7fe        ..      B        0x80001ae ; Reset_Handler + 22
        0x080001b0:    e7fe        ..      B        0x80001b0 ; Reset_Handler + 24
    ADC1_2_IRQHandler
    CAN1_RX1_IRQHandler
    CAN1_SCE_IRQHandler
    DMA1_Channel1_IRQHandler
    DMA1_Channel2_IRQHandler
    DMA1_Channel3_IRQHandler
    DMA1_Channel4_IRQHandler
    DMA1_Channel5_IRQHandler
    DMA1_Channel6_IRQHandler
    DMA1_Channel7_IRQHandler
    EXTI0_IRQHandler
    EXTI1_IRQHandler
    EXTI2_IRQHandler
    EXTI3_IRQHandler
    EXTI4_IRQHandler
    EXTI9_5_IRQHandler
    FLASH_IRQHandler
    I2C1_ER_IRQHandler
    I2C1_EV_IRQHandler
    I2C2_ER_IRQHandler
    I2C2_EV_IRQHandler
    PVD_IRQHandler
    RCC_IRQHandler
    RTC_Alarm_IRQHandler
    RTC_IRQHandler
    SPI1_IRQHandler
    SPI2_IRQHandler
    TAMPER_IRQHandler
    TIM1_BRK_IRQHandler
    TIM1_CC_IRQHandler
    TIM1_TRG_COM_IRQHandler
    TIM1_UP_IRQHandler
    TIM2_IRQHandler
    TIM3_IRQHandler
    USART1_IRQHandler
    USART2_IRQHandler
    USART3_IRQHandler
    USBWakeUp_IRQHandler
    USB_HP_CAN1_TX_IRQHandler
    USB_LP_CAN1_RX0_IRQHandler
    WWDG_IRQHandler
        0x080001b2:    e7fe        ..      B        ADC1_2_IRQHandler ; 0x80001b2
    $d
        0x080001b4:    08002be5    .+..    DCD    134228965
        0x080001b8:    080000ed    ....    DCD    134217965
    $t
    .text
    __aeabi_uldivmod
        0x080001bc:    e92d5ff0    -.._    PUSH     {r4-r12,lr}
        0x080001c0:    4605        .F      MOV      r5,r0
        0x080001c2:    2000        .       MOVS     r0,#0
        0x080001c4:    4692        .F      MOV      r10,r2
        0x080001c6:    469b        .F      MOV      r11,r3
        0x080001c8:    4688        .F      MOV      r8,r1
        0x080001ca:    4606        .F      MOV      r6,r0
        0x080001cc:    4681        .F      MOV      r9,r0
        0x080001ce:    2440        @$      MOVS     r4,#0x40
        0x080001d0:    e01b        ..      B        0x800020a ; __aeabi_uldivmod + 78
        0x080001d2:    4628        (F      MOV      r0,r5
        0x080001d4:    4641        AF      MOV      r1,r8
        0x080001d6:    4647        GF      MOV      r7,r8
        0x080001d8:    4622        "F      MOV      r2,r4
        0x080001da:    f000f820    .. .    BL       __aeabi_llsr ; 0x800021e
        0x080001de:    4653        SF      MOV      r3,r10
        0x080001e0:    465a        ZF      MOV      r2,r11
        0x080001e2:    1ac0        ..      SUBS     r0,r0,r3
        0x080001e4:    4191        .A      SBCS     r1,r1,r2
        0x080001e6:    d310        ..      BCC      0x800020a ; __aeabi_uldivmod + 78
        0x080001e8:    4611        .F      MOV      r1,r2
        0x080001ea:    4618        .F      MOV      r0,r3
        0x080001ec:    4622        "F      MOV      r2,r4
        0x080001ee:    f000f84a    ..J.    BL       __aeabi_llsl ; 0x8000286
        0x080001f2:    1a2d        -.      SUBS     r5,r5,r0
        0x080001f4:    eb670801    g...    SBC      r8,r7,r1
        0x080001f8:    464f        OF      MOV      r7,r9
        0x080001fa:    4622        "F      MOV      r2,r4
        0x080001fc:    2001        .       MOVS     r0,#1
        0x080001fe:    2100        .!      MOVS     r1,#0
        0x08000200:    f000f841    ..A.    BL       __aeabi_llsl ; 0x8000286
        0x08000204:    eb170900    ....    ADDS     r9,r7,r0
        0x08000208:    414e        NA      ADCS     r6,r6,r1
        0x0800020a:    1e20         .      SUBS     r0,r4,#0
        0x0800020c:    f1a40401    ....    SUB      r4,r4,#1
        0x08000210:    dcdf        ..      BGT      0x80001d2 ; __aeabi_uldivmod + 22
        0x08000212:    4648        HF      MOV      r0,r9
        0x08000214:    4631        1F      MOV      r1,r6
        0x08000216:    462a        *F      MOV      r2,r5
        0x08000218:    4643        CF      MOV      r3,r8
        0x0800021a:    e8bd9ff0    ....    POP      {r4-r12,pc}
    .text
    __aeabi_llsr
    _ll_ushift_r
        0x0800021e:    2a20         *      CMP      r2,#0x20
        0x08000220:    db04        ..      BLT      0x800022c ; __aeabi_llsr + 14
        0x08000222:    3a20         :      SUBS     r2,r2,#0x20
        0x08000224:    fa21f002    !...    LSR      r0,r1,r2
        0x08000228:    2100        .!      MOVS     r1,#0
        0x0800022a:    4770        pG      BX       lr
        0x0800022c:    fa21f302    !...    LSR      r3,r1,r2
        0x08000230:    40d0        .@      LSRS     r0,r0,r2
        0x08000232:    f1c20220    .. .    RSB      r2,r2,#0x20
        0x08000236:    4091        .@      LSLS     r1,r1,r2
        0x08000238:    4308        .C      ORRS     r0,r0,r1
        0x0800023a:    4619        .F      MOV      r1,r3
        0x0800023c:    4770        pG      BX       lr
    .text
    __aeabi_memcpy
    __aeabi_memcpy4
    __aeabi_memcpy8
        0x0800023e:    ea400301    @...    ORR      r3,r0,r1
        0x08000242:    079b        ..      LSLS     r3,r3,#30
        0x08000244:    d003        ..      BEQ      0x800024e ; __aeabi_memcpy + 16
        0x08000246:    e009        ..      B        0x800025c ; __aeabi_memcpy + 30
        0x08000248:    c908        ..      LDM      r1!,{r3}
        0x0800024a:    1f12        ..      SUBS     r2,r2,#4
        0x0800024c:    c008        ..      STM      r0!,{r3}
        0x0800024e:    2a04        .*      CMP      r2,#4
        0x08000250:    d2fa        ..      BCS      0x8000248 ; __aeabi_memcpy + 10
        0x08000252:    e003        ..      B        0x800025c ; __aeabi_memcpy + 30
        0x08000254:    f8113b01    ...;    LDRB     r3,[r1],#1
        0x08000258:    f8003b01    ...;    STRB     r3,[r0],#1
        0x0800025c:    1e52        R.      SUBS     r2,r2,#1
        0x0800025e:    d2f9        ..      BCS      0x8000254 ; __aeabi_memcpy + 22
        0x08000260:    4770        pG      BX       lr
    .text
    __aeabi_memset
    __aeabi_memset4
    __aeabi_memset8
        0x08000262:    b2d2        ..      UXTB     r2,r2
        0x08000264:    e001        ..      B        0x800026a ; __aeabi_memset + 8
        0x08000266:    f8002b01    ...+    STRB     r2,[r0],#1
        0x0800026a:    1e49        I.      SUBS     r1,r1,#1
        0x0800026c:    d2fb        ..      BCS      0x8000266 ; __aeabi_memset + 4
        0x0800026e:    4770        pG      BX       lr
    __aeabi_memclr
    __aeabi_memclr4
    __aeabi_memclr8
        0x08000270:    2200        ."      MOVS     r2,#0
        0x08000272:    e7f6        ..      B        __aeabi_memset ; 0x8000262
    memset
        0x08000274:    b510        ..      PUSH     {r4,lr}
        0x08000276:    4613        .F      MOV      r3,r2
        0x08000278:    460a        .F      MOV      r2,r1
        0x0800027a:    4604        .F      MOV      r4,r0
        0x0800027c:    4619        .F      MOV      r1,r3
        0x0800027e:    f7fffff0    ....    BL       __aeabi_memset ; 0x8000262
        0x08000282:    4620         F      MOV      r0,r4
        0x08000284:    bd10        ..      POP      {r4,pc}
    .text
    __aeabi_llsl
    _ll_shift_l
        0x08000286:    2a20         *      CMP      r2,#0x20
        0x08000288:    db04        ..      BLT      0x8000294 ; __aeabi_llsl + 14
        0x0800028a:    3a20         :      SUBS     r2,r2,#0x20
        0x0800028c:    fa00f102    ....    LSL      r1,r0,r2
        0x08000290:    2000        .       MOVS     r0,#0
        0x08000292:    4770        pG      BX       lr
        0x08000294:    4091        .@      LSLS     r1,r1,r2
        0x08000296:    f1c20320    .. .    RSB      r3,r2,#0x20
        0x0800029a:    fa20f303     ...    LSR      r3,r0,r3
        0x0800029e:    4319        .C      ORRS     r1,r1,r3
        0x080002a0:    4090        .@      LSLS     r0,r0,r2
        0x080002a2:    4770        pG      BX       lr
    .text
    __scatterload
    __scatterload_rt2
        0x080002a4:    4c06        .L      LDR      r4,[pc,#24] ; [0x80002c0] = 0x8004f28
        0x080002a6:    4d07        .M      LDR      r5,[pc,#28] ; [0x80002c4] = 0x8004f48
        0x080002a8:    e006        ..      B        0x80002b8 ; __scatterload + 20
        0x080002aa:    68e0        .h      LDR      r0,[r4,#0xc]
        0x080002ac:    f0400301    @...    ORR      r3,r0,#1
        0x080002b0:    e8940007    ....    LDM      r4,{r0-r2}
        0x080002b4:    4798        .G      BLX      r3
        0x080002b6:    3410        .4      ADDS     r4,r4,#0x10
        0x080002b8:    42ac        .B      CMP      r4,r5
        0x080002ba:    d3f6        ..      BCC      0x80002aa ; __scatterload + 6
        0x080002bc:    f7ffff1a    ....    BL       __main_after_scatterload ; 0x80000f4
    $d
        0x080002c0:    08004f28    (O..    DCD    134237992
        0x080002c4:    08004f48    HO..    DCD    134238024
    $t
    i.ADC_ConversionStop_Disable
    ADC_ConversionStop_Disable
        0x080002c8:    b570        p.      PUSH     {r4-r6,lr}
        0x080002ca:    4604        .F      MOV      r4,r0
        0x080002cc:    6800        .h      LDR      r0,[r0,#0]
        0x080002ce:    6881        .h      LDR      r1,[r0,#8]
        0x080002d0:    43c9        .C      MVNS     r1,r1
        0x080002d2:    07c9        ..      LSLS     r1,r1,#31
        0x080002d4:    d117        ..      BNE      0x8000306 ; ADC_ConversionStop_Disable + 62
        0x080002d6:    6881        .h      LDR      r1,[r0,#8]
        0x080002d8:    f0210101    !...    BIC      r1,r1,#1
        0x080002dc:    6081        .`      STR      r1,[r0,#8]
        0x080002de:    f000fa7b    ..{.    BL       HAL_GetTick ; 0x80007d8
        0x080002e2:    4605        .F      MOV      r5,r0
        0x080002e4:    e00a        ..      B        0x80002fc ; ADC_ConversionStop_Disable + 52
        0x080002e6:    bf00        ..      NOP      
        0x080002e8:    f000fa76    ..v.    BL       HAL_GetTick ; 0x80007d8
        0x080002ec:    1b40        @.      SUBS     r0,r0,r5
        0x080002ee:    2802        .(      CMP      r0,#2
        0x080002f0:    d904        ..      BLS      0x80002fc ; ADC_ConversionStop_Disable + 52
        0x080002f2:    6820         h      LDR      r0,[r4,#0]
        0x080002f4:    6880        .h      LDR      r0,[r0,#8]
        0x080002f6:    43c0        .C      MVNS     r0,r0
        0x080002f8:    07c0        ..      LSLS     r0,r0,#31
        0x080002fa:    d006        ..      BEQ      0x800030a ; ADC_ConversionStop_Disable + 66
        0x080002fc:    6820         h      LDR      r0,[r4,#0]
        0x080002fe:    6880        .h      LDR      r0,[r0,#8]
        0x08000300:    43c0        .C      MVNS     r0,r0
        0x08000302:    07c0        ..      LSLS     r0,r0,#31
        0x08000304:    d0f0        ..      BEQ      0x80002e8 ; ADC_ConversionStop_Disable + 32
        0x08000306:    2000        .       MOVS     r0,#0
        0x08000308:    bd70        p.      POP      {r4-r6,pc}
        0x0800030a:    6aa0        .j      LDR      r0,[r4,#0x28]
        0x0800030c:    f0400010    @...    ORR      r0,r0,#0x10
        0x08000310:    62a0        .b      STR      r0,[r4,#0x28]
        0x08000312:    6ae0        .j      LDR      r0,[r4,#0x2c]
        0x08000314:    f0400001    @...    ORR      r0,r0,#1
        0x08000318:    62e0        .b      STR      r0,[r4,#0x2c]
        0x0800031a:    2001        .       MOVS     r0,#1
        0x0800031c:    bd70        p.      POP      {r4-r6,pc}
    i.BusFault_Handler
    BusFault_Handler
        0x0800031e:    e7fe        ..      B        BusFault_Handler ; 0x800031e
    i.DebugMon_Handler
    DebugMon_Handler
        0x08000320:    4770        pG      BX       lr
    i.EXTI15_10_IRQHandler
    EXTI15_10_IRQHandler
        0x08000322:    b510        ..      PUSH     {r4,lr}
        0x08000324:    f44f6080    O..`    MOV      r0,#0x400
        0x08000328:    f000f950    ..P.    BL       HAL_GPIO_EXTI_IRQHandler ; 0x80005cc
        0x0800032c:    f44f6000    O..`    MOV      r0,#0x800
        0x08000330:    f000f94c    ..L.    BL       HAL_GPIO_EXTI_IRQHandler ; 0x80005cc
        0x08000334:    e8bd4010    ...@    POP      {r4,lr}
        0x08000338:    f44f5080    O..P    MOV      r0,#0x1000
        0x0800033c:    f000b946    ..F.    B.W      HAL_GPIO_EXTI_IRQHandler ; 0x80005cc
    i.Error_Handler
    Error_Handler
        0x08000340:    b672        r.      CPSID    i
        0x08000342:    e7fe        ..      B        0x8000342 ; Error_Handler + 2
    i.HAL_ADC_ConfigChannel
    HAL_ADC_ConfigChannel
        0x08000344:    b5f8        ..      PUSH     {r3-r7,lr}
        0x08000346:    2400        .$      MOVS     r4,#0
        0x08000348:    9400        ..      STR      r4,[sp,#0]
        0x0800034a:    f8902024    ..$     LDRB     r2,[r0,#0x24]
        0x0800034e:    4625        %F      MOV      r5,r4
        0x08000350:    2a01        .*      CMP      r2,#1
        0x08000352:    d012        ..      BEQ      0x800037a ; HAL_ADC_ConfigChannel + 54
        0x08000354:    2201        ."      MOVS     r2,#1
        0x08000356:    f8802024    ..$     STRB     r2,[r0,#0x24]
        0x0800035a:    684a        Jh      LDR      r2,[r1,#4]
        0x0800035c:    231f        .#      MOVS     r3,#0x1f
        0x0800035e:    2a07        .*      CMP      r2,#7
        0x08000360:    d20d        ..      BCS      0x800037e ; HAL_ADC_ConfigChannel + 58
        0x08000362:    6806        .h      LDR      r6,[r0,#0]
        0x08000364:    6b77        wk      LDR      r7,[r6,#0x34]
        0x08000366:    1e52        R.      SUBS     r2,r2,#1
        0x08000368:    eb020282    ....    ADD      r2,r2,r2,LSL #2
        0x0800036c:    4093        .@      LSLS     r3,r3,r2
        0x0800036e:    439f        .C      BICS     r7,r7,r3
        0x08000370:    680b        .h      LDR      r3,[r1,#0]
        0x08000372:    4093        .@      LSLS     r3,r3,r2
        0x08000374:    431f        .C      ORRS     r7,r7,r3
        0x08000376:    6377        wc      STR      r7,[r6,#0x34]
        0x08000378:    e019        ..      B        0x80003ae ; HAL_ADC_ConfigChannel + 106
        0x0800037a:    2002        .       MOVS     r0,#2
        0x0800037c:    bdf8        ..      POP      {r3-r7,pc}
        0x0800037e:    6806        .h      LDR      r6,[r0,#0]
        0x08000380:    2a0d        .*      CMP      r2,#0xd
        0x08000382:    d20a        ..      BCS      0x800039a ; HAL_ADC_ConfigChannel + 86
        0x08000384:    6b37        7k      LDR      r7,[r6,#0x30]
        0x08000386:    1fd2        ..      SUBS     r2,r2,#7
        0x08000388:    eb020282    ....    ADD      r2,r2,r2,LSL #2
        0x0800038c:    4093        .@      LSLS     r3,r3,r2
        0x0800038e:    439f        .C      BICS     r7,r7,r3
        0x08000390:    680b        .h      LDR      r3,[r1,#0]
        0x08000392:    4093        .@      LSLS     r3,r3,r2
        0x08000394:    431f        .C      ORRS     r7,r7,r3
        0x08000396:    6337        7c      STR      r7,[r6,#0x30]
        0x08000398:    e009        ..      B        0x80003ae ; HAL_ADC_ConfigChannel + 106
        0x0800039a:    6af7        .j      LDR      r7,[r6,#0x2c]
        0x0800039c:    3a0d        .:      SUBS     r2,r2,#0xd
        0x0800039e:    eb020282    ....    ADD      r2,r2,r2,LSL #2
        0x080003a2:    4093        .@      LSLS     r3,r3,r2
        0x080003a4:    439f        .C      BICS     r7,r7,r3
        0x080003a6:    680b        .h      LDR      r3,[r1,#0]
        0x080003a8:    4093        .@      LSLS     r3,r3,r2
        0x080003aa:    431f        .C      ORRS     r7,r7,r3
        0x080003ac:    62f7        .b      STR      r7,[r6,#0x2c]
        0x080003ae:    680a        .h      LDR      r2,[r1,#0]
        0x080003b0:    2307        .#      MOVS     r3,#7
        0x080003b2:    6806        .h      LDR      r6,[r0,#0]
        0x080003b4:    2a0a        .*      CMP      r2,#0xa
        0x080003b6:    d30a        ..      BCC      0x80003ce ; HAL_ADC_ConfigChannel + 138
        0x080003b8:    68f7        .h      LDR      r7,[r6,#0xc]
        0x080003ba:    3a0a        .:      SUBS     r2,r2,#0xa
        0x080003bc:    eb020242    ..B.    ADD      r2,r2,r2,LSL #1
        0x080003c0:    4093        .@      LSLS     r3,r3,r2
        0x080003c2:    439f        .C      BICS     r7,r7,r3
        0x080003c4:    688b        .h      LDR      r3,[r1,#8]
        0x080003c6:    4093        .@      LSLS     r3,r3,r2
        0x080003c8:    431f        .C      ORRS     r7,r7,r3
        0x080003ca:    60f7        .`      STR      r7,[r6,#0xc]
        0x080003cc:    e008        ..      B        0x80003e0 ; HAL_ADC_ConfigChannel + 156
        0x080003ce:    6937        7i      LDR      r7,[r6,#0x10]
        0x080003d0:    eb020242    ..B.    ADD      r2,r2,r2,LSL #1
        0x080003d4:    4093        .@      LSLS     r3,r3,r2
        0x080003d6:    439f        .C      BICS     r7,r7,r3
        0x080003d8:    688b        .h      LDR      r3,[r1,#8]
        0x080003da:    4093        .@      LSLS     r3,r3,r2
        0x080003dc:    431f        .C      ORRS     r7,r7,r3
        0x080003de:    6137        7a      STR      r7,[r6,#0x10]
        0x080003e0:    680a        .h      LDR      r2,[r1,#0]
        0x080003e2:    2a10        .*      CMP      r2,#0x10
        0x080003e4:    d001        ..      BEQ      0x80003ea ; HAL_ADC_ConfigChannel + 166
        0x080003e6:    2a11        .*      CMP      r2,#0x11
        0x080003e8:    d120         .      BNE      0x800042c ; HAL_ADC_ConfigChannel + 232
        0x080003ea:    4b12        .K      LDR      r3,[pc,#72] ; [0x8000434] = 0x40012400
        0x080003ec:    6802        .h      LDR      r2,[r0,#0]
        0x080003ee:    429a        .B      CMP      r2,r3
        0x080003f0:    d117        ..      BNE      0x8000422 ; HAL_ADC_ConfigChannel + 222
        0x080003f2:    6893        .h      LDR      r3,[r2,#8]
        0x080003f4:    021b        ..      LSLS     r3,r3,#8
        0x080003f6:    d419        ..      BMI      0x800042c ; HAL_ADC_ConfigChannel + 232
        0x080003f8:    6893        .h      LDR      r3,[r2,#8]
        0x080003fa:    f4430300    C...    ORR      r3,r3,#0x800000
        0x080003fe:    6093        .`      STR      r3,[r2,#8]
        0x08000400:    6809        .h      LDR      r1,[r1,#0]
        0x08000402:    2910        .)      CMP      r1,#0x10
        0x08000404:    d112        ..      BNE      0x800042c ; HAL_ADC_ConfigChannel + 232
        0x08000406:    490c        .I      LDR      r1,[pc,#48] ; [0x8000438] = 0x20000010
        0x08000408:    4a0c        .J      LDR      r2,[pc,#48] ; [0x800043c] = 0xf4240
        0x0800040a:    6809        .h      LDR      r1,[r1,#0]
        0x0800040c:    fbb1f1f2    ....    UDIV     r1,r1,r2
        0x08000410:    eb010181    ....    ADD      r1,r1,r1,LSL #2
        0x08000414:    0049        I.      LSLS     r1,r1,#1
        0x08000416:    e000        ..      B        0x800041a ; HAL_ADC_ConfigChannel + 214
        0x08000418:    1e49        I.      SUBS     r1,r1,#1
        0x0800041a:    9100        ..      STR      r1,[sp,#0]
        0x0800041c:    2900        .)      CMP      r1,#0
        0x0800041e:    d1fb        ..      BNE      0x8000418 ; HAL_ADC_ConfigChannel + 212
        0x08000420:    e004        ..      B        0x800042c ; HAL_ADC_ConfigChannel + 232
        0x08000422:    6a81        .j      LDR      r1,[r0,#0x28]
        0x08000424:    f0410120    A. .    ORR      r1,r1,#0x20
        0x08000428:    6281        .b      STR      r1,[r0,#0x28]
        0x0800042a:    2401        .$      MOVS     r4,#1
        0x0800042c:    f8805024    ..$P    STRB     r5,[r0,#0x24]
        0x08000430:    4620         F      MOV      r0,r4
        0x08000432:    bdf8        ..      POP      {r3-r7,pc}
    $d
        0x08000434:    40012400    .$.@    DCD    1073816576
        0x08000438:    20000010    ...     DCD    536870928
        0x0800043c:    000f4240    @B..    DCD    1000000
    $t
    i.HAL_ADC_Init
    HAL_ADC_Init
        0x08000440:    e92d41f0    -..A    PUSH     {r4-r8,lr}
        0x08000444:    f04f0700    O...    MOV      r7,#0
        0x08000448:    0004        ..      MOVS     r4,r0
        0x0800044a:    463d        =F      MOV      r5,r7
        0x0800044c:    d07e        ~.      BEQ      0x800054c ; HAL_ADC_Init + 268
        0x0800044e:    6aa0        .j      LDR      r0,[r4,#0x28]
        0x08000450:    2600        .&      MOVS     r6,#0
        0x08000452:    b928        (.      CBNZ     r0,0x8000460 ; HAL_ADC_Init + 32
        0x08000454:    62e6        .b      STR      r6,[r4,#0x2c]
        0x08000456:    f8846024    ..$`    STRB     r6,[r4,#0x24]
        0x0800045a:    4620         F      MOV      r0,r4
        0x0800045c:    f000f87e    ..~.    BL       HAL_ADC_MspInit ; 0x800055c
        0x08000460:    4620         F      MOV      r0,r4
        0x08000462:    f7ffff31    ..1.    BL       ADC_ConversionStop_Disable ; 0x80002c8
        0x08000466:    6aa1        .j      LDR      r1,[r4,#0x28]
        0x08000468:    06c9        ..      LSLS     r1,r1,#27
        0x0800046a:    d400        ..      BMI      0x800046e ; HAL_ADC_Init + 46
        0x0800046c:    b120         .      CBZ      r0,0x8000478 ; HAL_ADC_Init + 56
        0x0800046e:    6aa0        .j      LDR      r0,[r4,#0x28]
        0x08000470:    f0400010    @...    ORR      r0,r0,#0x10
        0x08000474:    62a0        .b      STR      r0,[r4,#0x28]
        0x08000476:    e069        i.      B        0x800054c ; HAL_ADC_Init + 268
        0x08000478:    6aa1        .j      LDR      r1,[r4,#0x28]
        0x0800047a:    f4215188    !..Q    BIC      r1,r1,#0x1100
        0x0800047e:    f0410102    A...    ORR      r1,r1,#2
        0x08000482:    62a1        .b      STR      r1,[r4,#0x28]
        0x08000484:    6862        bh      LDR      r2,[r4,#4]
        0x08000486:    69e1        .i      LDR      r1,[r4,#0x1c]
        0x08000488:    7b23        #{      LDRB     r3,[r4,#0xc]
        0x0800048a:    430a        .C      ORRS     r2,r2,r1
        0x0800048c:    ea470143    G.C.    ORR      r1,r7,r3,LSL #1
        0x08000490:    430a        .C      ORRS     r2,r2,r1
        0x08000492:    68a1        .h      LDR      r1,[r4,#8]
        0x08000494:    f44f7780    O..w    MOV      r7,#0x100
        0x08000498:    42b9        .B      CMP      r1,r7
        0x0800049a:    d009        ..      BEQ      0x80004b0 ; HAL_ADC_Init + 112
        0x0800049c:    2901        .)      CMP      r1,#1
        0x0800049e:    d007        ..      BEQ      0x80004b0 ; HAL_ADC_Init + 112
        0x080004a0:    f05f0100    _...    MOVS.W   r1,#0
        0x080004a4:    f894c014    ....    LDRB     r12,[r4,#0x14]
        0x080004a8:    f1bc0f01    ....    CMP      r12,#1
        0x080004ac:    d002        ..      BEQ      0x80004b4 ; HAL_ADC_Init + 116
        0x080004ae:    e00a        ..      B        0x80004c6 ; HAL_ADC_Init + 134
        0x080004b0:    4639        9F      MOV      r1,r7
        0x080004b2:    e7f7        ..      B        0x80004a4 ; HAL_ADC_Init + 100
        0x080004b4:    b1f3        ..      CBZ      r3,0x80004f4 ; HAL_ADC_Init + 180
        0x080004b6:    6aa3        .j      LDR      r3,[r4,#0x28]
        0x080004b8:    f0430320    C. .    ORR      r3,r3,#0x20
        0x080004bc:    62a3        .b      STR      r3,[r4,#0x28]
        0x080004be:    6ae3        .j      LDR      r3,[r4,#0x2c]
        0x080004c0:    f0430301    C...    ORR      r3,r3,#1
        0x080004c4:    62e3        .b      STR      r3,[r4,#0x2c]
        0x080004c6:    6823        #h      LDR      r3,[r4,#0]
        0x080004c8:    f8d3c004    ....    LDR      r12,[r3,#4]
        0x080004cc:    f42c4c69    ,.iL    BIC      r12,r12,#0xe900
        0x080004d0:    ea4c0c01    L...    ORR      r12,r12,r1
        0x080004d4:    f8c3c004    ....    STR      r12,[r3,#4]
        0x080004d8:    6821        !h      LDR      r1,[r4,#0]
        0x080004da:    688b        .h      LDR      r3,[r1,#8]
        0x080004dc:    f8dfc070    ..p.    LDR      r12,[pc,#112] ; [0x8000550] = 0xffe1f7fd
        0x080004e0:    ea03030c    ....    AND      r3,r3,r12
        0x080004e4:    4313        .C      ORRS     r3,r3,r2
        0x080004e6:    608b        .`      STR      r3,[r1,#8]
        0x080004e8:    68a1        .h      LDR      r1,[r4,#8]
        0x080004ea:    42b9        .B      CMP      r1,r7
        0x080004ec:    d00b        ..      BEQ      0x8000506 ; HAL_ADC_Init + 198
        0x080004ee:    2901        .)      CMP      r1,#1
        0x080004f0:    d009        ..      BEQ      0x8000506 ; HAL_ADC_Init + 198
        0x080004f2:    e00c        ..      B        0x800050e ; HAL_ADC_Init + 206
        0x080004f4:    f8dfc05c    ..\.    LDR      r12,[pc,#92] ; [0x8000554] = 0xffffe000
        0x080004f8:    69a3        .i      LDR      r3,[r4,#0x18]
        0x080004fa:    eb0c3343    ..C3    ADD      r3,r12,r3,LSL #13
        0x080004fe:    430b        .C      ORRS     r3,r3,r1
        0x08000500:    f4436100    C..a    ORR      r1,r3,#0x800
        0x08000504:    e7df        ..      B        0x80004c6 ; HAL_ADC_Init + 134
        0x08000506:    8a21        !.      LDRH     r1,[r4,#0x10]
        0x08000508:    050d        ..      LSLS     r5,r1,#20
        0x0800050a:    f5a51580    ....    SUB      r5,r5,#0x100000
        0x0800050e:    6821        !h      LDR      r1,[r4,#0]
        0x08000510:    6acb        .j      LDR      r3,[r1,#0x2c]
        0x08000512:    f4230370    #.p.    BIC      r3,r3,#0xf00000
        0x08000516:    432b        +C      ORRS     r3,r3,r5
        0x08000518:    62cb        .b      STR      r3,[r1,#0x2c]
        0x0800051a:    6821        !h      LDR      r1,[r4,#0]
        0x0800051c:    6889        .h      LDR      r1,[r1,#8]
        0x0800051e:    4b0e        .K      LDR      r3,[pc,#56] ; [0x8000558] = 0xff1f0efe
        0x08000520:    4019        .@      ANDS     r1,r1,r3
        0x08000522:    4291        .B      CMP      r1,r2
        0x08000524:    d108        ..      BNE      0x8000538 ; HAL_ADC_Init + 248
        0x08000526:    62e6        .b      STR      r6,[r4,#0x2c]
        0x08000528:    6aa1        .j      LDR      r1,[r4,#0x28]
        0x0800052a:    f0210102    !...    BIC      r1,r1,#2
        0x0800052e:    f0410101    A...    ORR      r1,r1,#1
        0x08000532:    62a1        .b      STR      r1,[r4,#0x28]
        0x08000534:    e8bd81f0    ....    POP      {r4-r8,pc}
        0x08000538:    6aa0        .j      LDR      r0,[r4,#0x28]
        0x0800053a:    f0200002     ...    BIC      r0,r0,#2
        0x0800053e:    f0400010    @...    ORR      r0,r0,#0x10
        0x08000542:    62a0        .b      STR      r0,[r4,#0x28]
        0x08000544:    6ae0        .j      LDR      r0,[r4,#0x2c]
        0x08000546:    f0400001    @...    ORR      r0,r0,#1
        0x0800054a:    62e0        .b      STR      r0,[r4,#0x2c]
        0x0800054c:    2001        .       MOVS     r0,#1
        0x0800054e:    e7f1        ..      B        0x8000534 ; HAL_ADC_Init + 244
    $d
        0x08000550:    ffe1f7fd    ....    DCD    4292999165
        0x08000554:    ffffe000    ....    DCD    4294959104
        0x08000558:    ff1f0efe    ....    DCD    4280225534
    $t
    i.HAL_ADC_MspInit
    HAL_ADC_MspInit
        0x0800055c:    b500        ..      PUSH     {lr}
        0x0800055e:    b085        ..      SUB      sp,sp,#0x14
        0x08000560:    2100        .!      MOVS     r1,#0
        0x08000562:    9100        ..      STR      r1,[sp,#0]
        0x08000564:    9101        ..      STR      r1,[sp,#4]
        0x08000566:    9102        ..      STR      r1,[sp,#8]
        0x08000568:    9103        ..      STR      r1,[sp,#0xc]
        0x0800056a:    6800        .h      LDR      r0,[r0,#0]
        0x0800056c:    490e        .I      LDR      r1,[pc,#56] ; [0x80005a8] = 0x40012400
        0x0800056e:    4288        .B      CMP      r0,r1
        0x08000570:    d118        ..      BNE      0x80005a4 ; HAL_ADC_MspInit + 72
        0x08000572:    480e        .H      LDR      r0,[pc,#56] ; [0x80005ac] = 0x40021000
        0x08000574:    6981        .i      LDR      r1,[r0,#0x18]
        0x08000576:    f4417100    A..q    ORR      r1,r1,#0x200
        0x0800057a:    6181        .a      STR      r1,[r0,#0x18]
        0x0800057c:    6981        .i      LDR      r1,[r0,#0x18]
        0x0800057e:    f4017100    ...q    AND      r1,r1,#0x200
        0x08000582:    9104        ..      STR      r1,[sp,#0x10]
        0x08000584:    6981        .i      LDR      r1,[r0,#0x18]
        0x08000586:    f0410104    A...    ORR      r1,r1,#4
        0x0800058a:    6181        .a      STR      r1,[r0,#0x18]
        0x0800058c:    6980        .i      LDR      r0,[r0,#0x18]
        0x0800058e:    4669        iF      MOV      r1,sp
        0x08000590:    f0000004    ....    AND      r0,r0,#4
        0x08000594:    9004        ..      STR      r0,[sp,#0x10]
        0x08000596:    2008        .       MOVS     r0,#8
        0x08000598:    9000        ..      STR      r0,[sp,#0]
        0x0800059a:    2003        .       MOVS     r0,#3
        0x0800059c:    9001        ..      STR      r0,[sp,#4]
        0x0800059e:    4804        .H      LDR      r0,[pc,#16] ; [0x80005b0] = 0x40010800
        0x080005a0:    f000f820    .. .    BL       HAL_GPIO_Init ; 0x80005e4
        0x080005a4:    b005        ..      ADD      sp,sp,#0x14
        0x080005a6:    bd00        ..      POP      {pc}
    $d
        0x080005a8:    40012400    .$.@    DCD    1073816576
        0x080005ac:    40021000    ...@    DCD    1073876992
        0x080005b0:    40010800    ...@    DCD    1073809408
    $t
    i.HAL_GPIO_EXTI_Callback
    HAL_GPIO_EXTI_Callback
        0x080005b4:    f5b06f80    ...o    CMP      r0,#0x400
        0x080005b8:    d004        ..      BEQ      0x80005c4 ; HAL_GPIO_EXTI_Callback + 16
        0x080005ba:    f5b05f80    ..._    CMP      r0,#0x1000
        0x080005be:    d103        ..      BNE      0x80005c8 ; HAL_GPIO_EXTI_Callback + 20
        0x080005c0:    f002ba7e    ..~.    B.W      RotaryEncoder_IRQ_Callback ; 0x8002ac0
        0x080005c4:    f001bde6    ....    B.W      IRReceiver_IRQ_Callback ; 0x8002194
        0x080005c8:    4770        pG      BX       lr
        0x080005ca:    0000        ..      MOVS     r0,r0
    i.HAL_GPIO_EXTI_IRQHandler
    HAL_GPIO_EXTI_IRQHandler
        0x080005cc:    4904        .I      LDR      r1,[pc,#16] ; [0x80005e0] = 0x40010414
        0x080005ce:    b510        ..      PUSH     {r4,lr}
        0x080005d0:    680a        .h      LDR      r2,[r1,#0]
        0x080005d2:    4202        .B      TST      r2,r0
        0x080005d4:    d002        ..      BEQ      0x80005dc ; HAL_GPIO_EXTI_IRQHandler + 16
        0x080005d6:    6008        .`      STR      r0,[r1,#0]
        0x080005d8:    f7ffffec    ....    BL       HAL_GPIO_EXTI_Callback ; 0x80005b4
        0x080005dc:    bd10        ..      POP      {r4,pc}
    $d
        0x080005de:    0000        ..      DCW    0
        0x080005e0:    40010414    ...@    DCD    1073808404
    $t
    i.HAL_GPIO_Init
    HAL_GPIO_Init
        0x080005e4:    e92d4ff8    -..O    PUSH     {r3-r11,lr}
        0x080005e8:    f8df91b8    ....    LDR      r9,[pc,#440] ; [0x80007a4] = 0x40010408
        0x080005ec:    2400        .$      MOVS     r4,#0
        0x080005ee:    f1a90b04    ....    SUB      r11,r9,#4
        0x080005f2:    4623        #F      MOV      r3,r4
        0x080005f4:    270f        .'      MOVS     r7,#0xf
        0x080005f6:    f1090a04    ....    ADD      r10,r9,#4
        0x080005fa:    f1ab0e04    ....    SUB      lr,r11,#4
        0x080005fe:    e0c9        ..      B        0x8000794 ; HAL_GPIO_Init + 432
        0x08000600:    2501        .%      MOVS     r5,#1
        0x08000602:    40a5        .@      LSLS     r5,r5,r4
        0x08000604:    402a        *@      ANDS     r2,r2,r5
        0x08000606:    42aa        .B      CMP      r2,r5
        0x08000608:    d17d        }.      BNE      0x8000706 ; HAL_GPIO_Init + 290
        0x0800060a:    4e67        gN      LDR      r6,[pc,#412] ; [0x80007a8] = 0x10110000
        0x0800060c:    f8d1c004    ....    LDR      r12,[r1,#4]
        0x08000610:    ebac0806    ....    SUB      r8,r12,r6
        0x08000614:    45b4        .E      CMP      r12,r6
        0x08000616:    d032        2.      BEQ      0x800067e ; HAL_GPIO_Init + 154
        0x08000618:    dc14        ..      BGT      0x8000644 ; HAL_GPIO_Init + 96
        0x0800061a:    f1bc0f03    ....    CMP      r12,#3
        0x0800061e:    d03a        :.      BEQ      0x8000696 ; HAL_GPIO_Init + 178
        0x08000620:    dc09        ..      BGT      0x8000636 ; HAL_GPIO_Init + 82
        0x08000622:    f1bc0f00    ....    CMP      r12,#0
        0x08000626:    d02a        *.      BEQ      0x800067e ; HAL_GPIO_Init + 154
        0x08000628:    f1bc0f01    ....    CMP      r12,#1
        0x0800062c:    d01c        ..      BEQ      0x8000668 ; HAL_GPIO_Init + 132
        0x0800062e:    f1bc0f02    ....    CMP      r12,#2
        0x08000632:    d131        1.      BNE      0x8000698 ; HAL_GPIO_Init + 180
        0x08000634:    e01d        ..      B        0x8000672 ; HAL_GPIO_Init + 142
        0x08000636:    f1bc0f11    ....    CMP      r12,#0x11
        0x0800063a:    d017        ..      BEQ      0x800066c ; HAL_GPIO_Init + 136
        0x0800063c:    f1bc0f12    ....    CMP      r12,#0x12
        0x08000640:    d12a        *.      BNE      0x8000698 ; HAL_GPIO_Init + 180
        0x08000642:    e019        ..      B        0x8000678 ; HAL_GPIO_Init + 148
        0x08000644:    f5b81f88    ....    CMP      r8,#0x110000
        0x08000648:    d019        ..      BEQ      0x800067e ; HAL_GPIO_Init + 154
        0x0800064a:    dc06        ..      BGT      0x800065a ; HAL_GPIO_Init + 118
        0x0800064c:    f5b83f80    ...?    CMP      r8,#0x10000
        0x08000650:    d015        ..      BEQ      0x800067e ; HAL_GPIO_Init + 154
        0x08000652:    f5b81f80    ....    CMP      r8,#0x100000
        0x08000656:    d11f        ..      BNE      0x8000698 ; HAL_GPIO_Init + 180
        0x08000658:    e011        ..      B        0x800067e ; HAL_GPIO_Init + 154
        0x0800065a:    f5b81f00    ....    CMP      r8,#0x200000
        0x0800065e:    d00e        ..      BEQ      0x800067e ; HAL_GPIO_Init + 154
        0x08000660:    f5b81f04    ....    CMP      r8,#0x210000
        0x08000664:    d118        ..      BNE      0x8000698 ; HAL_GPIO_Init + 180
        0x08000666:    e00a        ..      B        0x800067e ; HAL_GPIO_Init + 154
        0x08000668:    68cb        .h      LDR      r3,[r1,#0xc]
        0x0800066a:    e015        ..      B        0x8000698 ; HAL_GPIO_Init + 180
        0x0800066c:    68cb        .h      LDR      r3,[r1,#0xc]
        0x0800066e:    1d1b        ..      ADDS     r3,r3,#4
        0x08000670:    e012        ..      B        0x8000698 ; HAL_GPIO_Init + 180
        0x08000672:    68cb        .h      LDR      r3,[r1,#0xc]
        0x08000674:    3308        .3      ADDS     r3,r3,#8
        0x08000676:    e00f        ..      B        0x8000698 ; HAL_GPIO_Init + 180
        0x08000678:    68cb        .h      LDR      r3,[r1,#0xc]
        0x0800067a:    330c        .3      ADDS     r3,r3,#0xc
        0x0800067c:    e00c        ..      B        0x8000698 ; HAL_GPIO_Init + 180
        0x0800067e:    688b        .h      LDR      r3,[r1,#8]
        0x08000680:    b12b        +.      CBZ      r3,0x800068e ; HAL_GPIO_Init + 170
        0x08000682:    2b01        .+      CMP      r3,#1
        0x08000684:    f04f0308    O...    MOV      r3,#8
        0x08000688:    d003        ..      BEQ      0x8000692 ; HAL_GPIO_Init + 174
        0x0800068a:    6145        Ea      STR      r5,[r0,#0x14]
        0x0800068c:    e004        ..      B        0x8000698 ; HAL_GPIO_Init + 180
        0x0800068e:    2304        .#      MOVS     r3,#4
        0x08000690:    e002        ..      B        0x8000698 ; HAL_GPIO_Init + 180
        0x08000692:    6105        .a      STR      r5,[r0,#0x10]
        0x08000694:    e000        ..      B        0x8000698 ; HAL_GPIO_Init + 180
        0x08000696:    2300        .#      MOVS     r3,#0
        0x08000698:    2aff        .*      CMP      r2,#0xff
        0x0800069a:    d801        ..      BHI      0x80006a0 ; HAL_GPIO_Init + 188
        0x0800069c:    4606        .F      MOV      r6,r0
        0x0800069e:    e001        ..      B        0x80006a4 ; HAL_GPIO_Init + 192
        0x080006a0:    f1000604    ....    ADD      r6,r0,#4
        0x080006a4:    ea4f0584    O...    LSL      r5,r4,#2
        0x080006a8:    d901        ..      BLS      0x80006ae ; HAL_GPIO_Init + 202
        0x080006aa:    f1a50520    .. .    SUB      r5,r5,#0x20
        0x080006ae:    f8d68000    ....    LDR      r8,[r6,#0]
        0x080006b2:    fa07fc05    ....    LSL      r12,r7,r5
        0x080006b6:    ea28080c    (...    BIC      r8,r8,r12
        0x080006ba:    fa03f505    ....    LSL      r5,r3,r5
        0x080006be:    ea480805    H...    ORR      r8,r8,r5
        0x080006c2:    f8c68000    ....    STR      r8,[r6,#0]
        0x080006c6:    684d        Mh      LDR      r5,[r1,#4]
        0x080006c8:    00ed        ..      LSLS     r5,r5,#3
        0x080006ca:    d562        b.      BPL      0x8000792 ; HAL_GPIO_Init + 430
        0x080006cc:    4d37        7M      LDR      r5,[pc,#220] ; [0x80007ac] = 0x40021000
        0x080006ce:    69ae        .i      LDR      r6,[r5,#0x18]
        0x080006d0:    f0460601    F...    ORR      r6,r6,#1
        0x080006d4:    61ae        .a      STR      r6,[r5,#0x18]
        0x080006d6:    69ad        .i      LDR      r5,[r5,#0x18]
        0x080006d8:    f0240603    $...    BIC      r6,r4,#3
        0x080006dc:    f0050501    ....    AND      r5,r5,#1
        0x080006e0:    9500        ..      STR      r5,[sp,#0]
        0x080006e2:    4d33        3M      LDR      r5,[pc,#204] ; [0x80007b0] = 0x40010000
        0x080006e4:    eb060c05    ....    ADD      r12,r6,r5
        0x080006e8:    f8dc5008    ...P    LDR      r5,[r12,#8]
        0x080006ec:    07a6        ..      LSLS     r6,r4,#30
        0x080006ee:    0f36        6.      LSRS     r6,r6,#28
        0x080006f0:    fa07f806    ....    LSL      r8,r7,r6
        0x080006f4:    ea250508    %...    BIC      r5,r5,r8
        0x080006f8:    f8df80b8    ....    LDR      r8,[pc,#184] ; [0x80007b4] = 0x40010800
        0x080006fc:    4540        @E      CMP      r0,r8
        0x080006fe:    d103        ..      BNE      0x8000708 ; HAL_GPIO_Init + 292
        0x08000700:    f04f0800    O...    MOV      r8,#0
        0x08000704:    e017        ..      B        0x8000736 ; HAL_GPIO_Init + 338
        0x08000706:    e044        D.      B        0x8000792 ; HAL_GPIO_Init + 430
        0x08000708:    f8df80ac    ....    LDR      r8,[pc,#172] ; [0x80007b8] = 0x40010c00
        0x0800070c:    4540        @E      CMP      r0,r8
        0x0800070e:    d102        ..      BNE      0x8000716 ; HAL_GPIO_Init + 306
        0x08000710:    f04f0801    O...    MOV      r8,#1
        0x08000714:    e00f        ..      B        0x8000736 ; HAL_GPIO_Init + 338
        0x08000716:    f8df80a4    ....    LDR      r8,[pc,#164] ; [0x80007bc] = 0x40011000
        0x0800071a:    4540        @E      CMP      r0,r8
        0x0800071c:    d102        ..      BNE      0x8000724 ; HAL_GPIO_Init + 320
        0x0800071e:    f04f0802    O...    MOV      r8,#2
        0x08000722:    e008        ..      B        0x8000736 ; HAL_GPIO_Init + 338
        0x08000724:    f8df8098    ....    LDR      r8,[pc,#152] ; [0x80007c0] = 0x40011400
        0x08000728:    4540        @E      CMP      r0,r8
        0x0800072a:    d102        ..      BNE      0x8000732 ; HAL_GPIO_Init + 334
        0x0800072c:    f04f0803    O...    MOV      r8,#3
        0x08000730:    e001        ..      B        0x8000736 ; HAL_GPIO_Init + 338
        0x08000732:    f04f0804    O...    MOV      r8,#4
        0x08000736:    fa08f806    ....    LSL      r8,r8,r6
        0x0800073a:    ea480805    H...    ORR      r8,r8,r5
        0x0800073e:    f8cc8008    ....    STR      r8,[r12,#8]
        0x08000742:    684d        Mh      LDR      r5,[r1,#4]
        0x08000744:    f8d96000    ...`    LDR      r6,[r9,#0]
        0x08000748:    02ed        ..      LSLS     r5,r5,#11
        0x0800074a:    464d        MF      MOV      r5,r9
        0x0800074c:    d501        ..      BPL      0x8000752 ; HAL_GPIO_Init + 366
        0x0800074e:    4316        .C      ORRS     r6,r6,r2
        0x08000750:    e000        ..      B        0x8000754 ; HAL_GPIO_Init + 368
        0x08000752:    4396        .C      BICS     r6,r6,r2
        0x08000754:    602e        .`      STR      r6,[r5,#0]
        0x08000756:    684d        Mh      LDR      r5,[r1,#4]
        0x08000758:    f8da6000    ...`    LDR      r6,[r10,#0]
        0x0800075c:    02ad        ..      LSLS     r5,r5,#10
        0x0800075e:    4655        UF      MOV      r5,r10
        0x08000760:    d501        ..      BPL      0x8000766 ; HAL_GPIO_Init + 386
        0x08000762:    4316        .C      ORRS     r6,r6,r2
        0x08000764:    e000        ..      B        0x8000768 ; HAL_GPIO_Init + 388
        0x08000766:    4396        .C      BICS     r6,r6,r2
        0x08000768:    602e        .`      STR      r6,[r5,#0]
        0x0800076a:    684d        Mh      LDR      r5,[r1,#4]
        0x0800076c:    f8db6000    ...`    LDR      r6,[r11,#0]
        0x08000770:    03ad        ..      LSLS     r5,r5,#14
        0x08000772:    465d        ]F      MOV      r5,r11
        0x08000774:    d501        ..      BPL      0x800077a ; HAL_GPIO_Init + 406
        0x08000776:    4316        .C      ORRS     r6,r6,r2
        0x08000778:    e000        ..      B        0x800077c ; HAL_GPIO_Init + 408
        0x0800077a:    4396        .C      BICS     r6,r6,r2
        0x0800077c:    602e        .`      STR      r6,[r5,#0]
        0x0800077e:    684d        Mh      LDR      r5,[r1,#4]
        0x08000780:    f8de6000    ...`    LDR      r6,[lr,#0]
        0x08000784:    03ed        ..      LSLS     r5,r5,#15
        0x08000786:    4675        uF      MOV      r5,lr
        0x08000788:    d501        ..      BPL      0x800078e ; HAL_GPIO_Init + 426
        0x0800078a:    4316        .C      ORRS     r6,r6,r2
        0x0800078c:    e000        ..      B        0x8000790 ; HAL_GPIO_Init + 428
        0x0800078e:    4396        .C      BICS     r6,r6,r2
        0x08000790:    602e        .`      STR      r6,[r5,#0]
        0x08000792:    1c64        d.      ADDS     r4,r4,#1
        0x08000794:    680d        .h      LDR      r5,[r1,#0]
        0x08000796:    462a        *F      MOV      r2,r5
        0x08000798:    40e5        .@      LSRS     r5,r5,r4
        0x0800079a:    f47faf31    ..1.    BNE      0x8000600 ; HAL_GPIO_Init + 28
        0x0800079e:    e8bd8ff8    ....    POP      {r3-r11,pc}
    $d
        0x080007a2:    0000        ..      DCW    0
        0x080007a4:    40010408    ...@    DCD    1073808392
        0x080007a8:    10110000    ....    DCD    269549568
        0x080007ac:    40021000    ...@    DCD    1073876992
        0x080007b0:    40010000    ...@    DCD    1073807360
        0x080007b4:    40010800    ...@    DCD    1073809408
        0x080007b8:    40010c00    ...@    DCD    1073810432
        0x080007bc:    40011000    ...@    DCD    1073811456
        0x080007c0:    40011400    ...@    DCD    1073812480
    $t
    i.HAL_GPIO_ReadPin
    HAL_GPIO_ReadPin
        0x080007c4:    6880        .h      LDR      r0,[r0,#8]
        0x080007c6:    4008        .@      ANDS     r0,r0,r1
        0x080007c8:    d000        ..      BEQ      0x80007cc ; HAL_GPIO_ReadPin + 8
        0x080007ca:    2001        .       MOVS     r0,#1
        0x080007cc:    4770        pG      BX       lr
    i.HAL_GPIO_WritePin
    HAL_GPIO_WritePin
        0x080007ce:    b10a        ..      CBZ      r2,0x80007d4 ; HAL_GPIO_WritePin + 6
        0x080007d0:    6101        .a      STR      r1,[r0,#0x10]
        0x080007d2:    4770        pG      BX       lr
        0x080007d4:    0409        ..      LSLS     r1,r1,#16
        0x080007d6:    e7fb        ..      B        0x80007d0 ; HAL_GPIO_WritePin + 2
    i.HAL_GetTick
    HAL_GetTick
        0x080007d8:    4801        .H      LDR      r0,[pc,#4] ; [0x80007e0] = 0x20000004
        0x080007da:    6880        .h      LDR      r0,[r0,#8]
        0x080007dc:    4770        pG      BX       lr
    $d
        0x080007de:    0000        ..      DCW    0
        0x080007e0:    20000004    ...     DCD    536870916
    $t
    i.HAL_I2C_Init
    HAL_I2C_Init
        0x080007e4:    b570        p.      PUSH     {r4-r6,lr}
        0x080007e6:    0004        ..      MOVS     r4,r0
        0x080007e8:    d025        %.      BEQ      0x8000836 ; HAL_I2C_Init + 82
        0x080007ea:    f894003d    ..=.    LDRB     r0,[r4,#0x3d]
        0x080007ee:    2500        .%      MOVS     r5,#0
        0x080007f0:    b920         .      CBNZ     r0,0x80007fc ; HAL_I2C_Init + 24
        0x080007f2:    f884503c    ..<P    STRB     r5,[r4,#0x3c]
        0x080007f6:    4620         F      MOV      r0,r4
        0x080007f8:    f000f9e6    ....    BL       HAL_I2C_MspInit ; 0x8000bc8
        0x080007fc:    2024        $       MOVS     r0,#0x24
        0x080007fe:    f884003d    ..=.    STRB     r0,[r4,#0x3d]
        0x08000802:    6820         h      LDR      r0,[r4,#0]
        0x08000804:    6801        .h      LDR      r1,[r0,#0]
        0x08000806:    f0210101    !...    BIC      r1,r1,#1
        0x0800080a:    6001        .`      STR      r1,[r0,#0]
        0x0800080c:    6820         h      LDR      r0,[r4,#0]
        0x0800080e:    6801        .h      LDR      r1,[r0,#0]
        0x08000810:    f4414100    A..A    ORR      r1,r1,#0x8000
        0x08000814:    6001        .`      STR      r1,[r0,#0]
        0x08000816:    6820         h      LDR      r0,[r4,#0]
        0x08000818:    6801        .h      LDR      r1,[r0,#0]
        0x0800081a:    f4214100    !..A    BIC      r1,r1,#0x8000
        0x0800081e:    6001        .`      STR      r1,[r0,#0]
        0x08000820:    f000fc78    ..x.    BL       HAL_RCC_GetPCLK1Freq ; 0x8001114
        0x08000824:    4a4d        MJ      LDR      r2,[pc,#308] ; [0x800095c] = 0x186a0
        0x08000826:    6861        ah      LDR      r1,[r4,#4]
        0x08000828:    4291        .B      CMP      r1,r2
        0x0800082a:    d801        ..      BHI      0x8000830 ; HAL_I2C_Init + 76
        0x0800082c:    494c        LI      LDR      r1,[pc,#304] ; [0x8000960] = 0x1e8480
        0x0800082e:    e000        ..      B        0x8000832 ; HAL_I2C_Init + 78
        0x08000830:    494c        LI      LDR      r1,[pc,#304] ; [0x8000964] = 0x3d0900
        0x08000832:    4288        .B      CMP      r0,r1
        0x08000834:    d201        ..      BCS      0x800083a ; HAL_I2C_Init + 86
        0x08000836:    2001        .       MOVS     r0,#1
        0x08000838:    bd70        p.      POP      {r4-r6,pc}
        0x0800083a:    494b        KI      LDR      r1,[pc,#300] ; [0x8000968] = 0xf4240
        0x0800083c:    6823        #h      LDR      r3,[r4,#0]
        0x0800083e:    fbb0f1f1    ....    UDIV     r1,r0,r1
        0x08000842:    685e        ^h      LDR      r6,[r3,#4]
        0x08000844:    f026063f    &.?.    BIC      r6,r6,#0x3f
        0x08000848:    430e        .C      ORRS     r6,r6,r1
        0x0800084a:    605e        ^`      STR      r6,[r3,#4]
        0x0800084c:    6863        ch      LDR      r3,[r4,#4]
        0x0800084e:    4293        .B      CMP      r3,r2
        0x08000850:    d906        ..      BLS      0x8000860 ; HAL_I2C_Init + 124
        0x08000852:    f44f7396    O..s    MOV      r3,#0x12c
        0x08000856:    4359        YC      MULS     r1,r3,r1
        0x08000858:    f44f737a    O.zs    MOV      r3,#0x3e8
        0x0800085c:    fbb1f1f3    ....    UDIV     r1,r1,r3
        0x08000860:    6823        #h      LDR      r3,[r4,#0]
        0x08000862:    1c49        I.      ADDS     r1,r1,#1
        0x08000864:    6a1e        .j      LDR      r6,[r3,#0x20]
        0x08000866:    f026063f    &.?.    BIC      r6,r6,#0x3f
        0x0800086a:    4331        1C      ORRS     r1,r1,r6
        0x0800086c:    6219        .b      STR      r1,[r3,#0x20]
        0x0800086e:    6861        ah      LDR      r1,[r4,#4]
        0x08000870:    4291        .B      CMP      r1,r2
        0x08000872:    d810        ..      BHI      0x8000896 ; HAL_I2C_Init + 178
        0x08000874:    0049        I.      LSLS     r1,r1,#1
        0x08000876:    1e40        @.      SUBS     r0,r0,#1
        0x08000878:    fbb0f2f1    ....    UDIV     r2,r0,r1
        0x0800087c:    1c52        R.      ADDS     r2,r2,#1
        0x0800087e:    f3c2020b    ....    UBFX     r2,r2,#0,#12
        0x08000882:    2a04        .*      CMP      r2,#4
        0x08000884:    d201        ..      BCS      0x800088a ; HAL_I2C_Init + 166
        0x08000886:    2004        .       MOVS     r0,#4
        0x08000888:    e022        ".      B        0x80008d0 ; HAL_I2C_Init + 236
        0x0800088a:    fbb0f0f1    ....    UDIV     r0,r0,r1
        0x0800088e:    1c40        @.      ADDS     r0,r0,#1
        0x08000890:    f3c0000b    ....    UBFX     r0,r0,#0,#12
        0x08000894:    e01c        ..      B        0x80008d0 ; HAL_I2C_Init + 236
        0x08000896:    68a2        .h      LDR      r2,[r4,#8]
        0x08000898:    b3f2        ..      CBZ      r2,0x8000918 ; HAL_I2C_Init + 308
        0x0800089a:    eb0103c1    ....    ADD      r3,r1,r1,LSL #3
        0x0800089e:    eb031601    ....    ADD      r6,r3,r1,LSL #4
        0x080008a2:    1e43        C.      SUBS     r3,r0,#1
        0x080008a4:    fbb3f3f6    ....    UDIV     r3,r3,r6
        0x080008a8:    1c5b        [.      ADDS     r3,r3,#1
        0x080008aa:    f4434380    C..C    ORR      r3,r3,#0x4000
        0x080008ae:    051b        ..      LSLS     r3,r3,#20
        0x080008b0:    d049        I.      BEQ      0x8000946 ; HAL_I2C_Init + 354
        0x080008b2:    b392        ..      CBZ      r2,0x800091a ; HAL_I2C_Init + 310
        0x080008b4:    eb0102c1    ....    ADD      r2,r1,r1,LSL #3
        0x080008b8:    eb021101    ....    ADD      r1,r2,r1,LSL #4
        0x080008bc:    1e40        @.      SUBS     r0,r0,#1
        0x080008be:    fbb0f0f1    ....    UDIV     r0,r0,r1
        0x080008c2:    1c40        @.      ADDS     r0,r0,#1
        0x080008c4:    f3c0000b    ....    UBFX     r0,r0,#0,#12
        0x080008c8:    f4404080    @..@    ORR      r0,r0,#0x4000
        0x080008cc:    f4404000    @..@    ORR      r0,r0,#0x8000
        0x080008d0:    6821        !h      LDR      r1,[r4,#0]
        0x080008d2:    69ca        .i      LDR      r2,[r1,#0x1c]
        0x080008d4:    f64c73ff    L..s    MOV      r3,#0xcfff
        0x080008d8:    439a        .C      BICS     r2,r2,r3
        0x080008da:    4310        .C      ORRS     r0,r0,r2
        0x080008dc:    61c8        .a      STR      r0,[r1,#0x1c]
        0x080008de:    e9d41007    ....    LDRD     r1,r0,[r4,#0x1c]
        0x080008e2:    4301        .C      ORRS     r1,r1,r0
        0x080008e4:    6820         h      LDR      r0,[r4,#0]
        0x080008e6:    6802        .h      LDR      r2,[r0,#0]
        0x080008e8:    f02202c0    "...    BIC      r2,r2,#0xc0
        0x080008ec:    4311        .C      ORRS     r1,r1,r2
        0x080008ee:    6001        .`      STR      r1,[r0,#0]
        0x080008f0:    e9d40103    ....    LDRD     r0,r1,[r4,#0xc]
        0x080008f4:    4301        .C      ORRS     r1,r1,r0
        0x080008f6:    6820         h      LDR      r0,[r4,#0]
        0x080008f8:    6882        .h      LDR      r2,[r0,#8]
        0x080008fa:    f24833ff    H..3    MOV      r3,#0x83ff
        0x080008fe:    439a        .C      BICS     r2,r2,r3
        0x08000900:    4311        .C      ORRS     r1,r1,r2
        0x08000902:    6081        .`      STR      r1,[r0,#8]
        0x08000904:    e9d40105    ....    LDRD     r0,r1,[r4,#0x14]
        0x08000908:    4308        .C      ORRS     r0,r0,r1
        0x0800090a:    6821        !h      LDR      r1,[r4,#0]
        0x0800090c:    68ca        .h      LDR      r2,[r1,#0xc]
        0x0800090e:    f02202ff    "...    BIC      r2,r2,#0xff
        0x08000912:    4310        .C      ORRS     r0,r0,r2
        0x08000914:    60c8        .`      STR      r0,[r1,#0xc]
        0x08000916:    e001        ..      B        0x800091c ; HAL_I2C_Init + 312
        0x08000918:    e00e        ..      B        0x8000938 ; HAL_I2C_Init + 340
        0x0800091a:    e016        ..      B        0x800094a ; HAL_I2C_Init + 358
        0x0800091c:    6820         h      LDR      r0,[r4,#0]
        0x0800091e:    6801        .h      LDR      r1,[r0,#0]
        0x08000920:    f0410101    A...    ORR      r1,r1,#1
        0x08000924:    6001        .`      STR      r1,[r0,#0]
        0x08000926:    6425        %d      STR      r5,[r4,#0x40]
        0x08000928:    2020                MOVS     r0,#0x20
        0x0800092a:    f884003d    ..=.    STRB     r0,[r4,#0x3d]
        0x0800092e:    6325        %c      STR      r5,[r4,#0x30]
        0x08000930:    f884503e    ..>P    STRB     r5,[r4,#0x3e]
        0x08000934:    2000        .       MOVS     r0,#0
        0x08000936:    bd70        p.      POP      {r4-r6,pc}
        0x08000938:    eb010641    ..A.    ADD      r6,r1,r1,LSL #1
        0x0800093c:    1e43        C.      SUBS     r3,r0,#1
        0x0800093e:    fbb3f3f6    ....    UDIV     r3,r3,r6
        0x08000942:    1c5b        [.      ADDS     r3,r3,#1
        0x08000944:    e7b3        ..      B        0x80008ae ; HAL_I2C_Init + 202
        0x08000946:    2001        .       MOVS     r0,#1
        0x08000948:    e7c2        ..      B        0x80008d0 ; HAL_I2C_Init + 236
        0x0800094a:    eb010141    ..A.    ADD      r1,r1,r1,LSL #1
        0x0800094e:    1e40        @.      SUBS     r0,r0,#1
        0x08000950:    fbb0f0f1    ....    UDIV     r0,r0,r1
        0x08000954:    1c40        @.      ADDS     r0,r0,#1
        0x08000956:    f3c0000b    ....    UBFX     r0,r0,#0,#12
        0x0800095a:    e7b7        ..      B        0x80008cc ; HAL_I2C_Init + 232
    $d
        0x0800095c:    000186a0    ....    DCD    100000
        0x08000960:    001e8480    ....    DCD    2000000
        0x08000964:    003d0900    ..=.    DCD    4000000
        0x08000968:    000f4240    @B..    DCD    1000000
    $t
    i.HAL_I2C_Master_Transmit
    HAL_I2C_Master_Transmit
        0x0800096c:    e92d4ff8    -..O    PUSH     {r3-r11,lr}
        0x08000970:    461f        .F      MOV      r7,r3
        0x08000972:    4690        .F      MOV      r8,r2
        0x08000974:    468a        .F      MOV      r10,r1
        0x08000976:    4604        .F      MOV      r4,r0
        0x08000978:    f8dd9028    ..(.    LDR      r9,[sp,#0x28]
        0x0800097c:    f7ffff2c    ..,.    BL       HAL_GetTick ; 0x80007d8
        0x08000980:    4605        .F      MOV      r5,r0
        0x08000982:    f894003d    ..=.    LDRB     r0,[r4,#0x3d]
        0x08000986:    2820         (      CMP      r0,#0x20
        0x08000988:    d17f        ..      BNE      0x8000a8a ; HAL_I2C_Master_Transmit + 286
        0x0800098a:    2319        .#      MOVS     r3,#0x19
        0x0800098c:    2201        ."      MOVS     r2,#1
        0x0800098e:    4940        @I      LDR      r1,[pc,#256] ; [0x8000a90] = 0x100002
        0x08000990:    4620         F      MOV      r0,r4
        0x08000992:    9500        ..      STR      r5,[sp,#0]
        0x08000994:    f001fa9c    ....    BL       I2C_WaitOnFlagUntilTimeout ; 0x8001ed0
        0x08000998:    2800        .(      CMP      r0,#0
        0x0800099a:    d176        v.      BNE      0x8000a8a ; HAL_I2C_Master_Transmit + 286
        0x0800099c:    f894003c    ..<.    LDRB     r0,[r4,#0x3c]
        0x080009a0:    2801        .(      CMP      r0,#1
        0x080009a2:    d072        r.      BEQ      0x8000a8a ; HAL_I2C_Master_Transmit + 286
        0x080009a4:    2001        .       MOVS     r0,#1
        0x080009a6:    f884003c    ..<.    STRB     r0,[r4,#0x3c]
        0x080009aa:    6820         h      LDR      r0,[r4,#0]
        0x080009ac:    6801        .h      LDR      r1,[r0,#0]
        0x080009ae:    07c9        ..      LSLS     r1,r1,#31
        0x080009b0:    d103        ..      BNE      0x80009ba ; HAL_I2C_Master_Transmit + 78
        0x080009b2:    6801        .h      LDR      r1,[r0,#0]
        0x080009b4:    f0410101    A...    ORR      r1,r1,#1
        0x080009b8:    6001        .`      STR      r1,[r0,#0]
        0x080009ba:    6820         h      LDR      r0,[r4,#0]
        0x080009bc:    6801        .h      LDR      r1,[r0,#0]
        0x080009be:    f4216100    !..a    BIC      r1,r1,#0x800
        0x080009c2:    6001        .`      STR      r1,[r0,#0]
        0x080009c4:    2021        !       MOVS     r0,#0x21
        0x080009c6:    f884003d    ..=.    STRB     r0,[r4,#0x3d]
        0x080009ca:    2010        .       MOVS     r0,#0x10
        0x080009cc:    f884003e    ..>.    STRB     r0,[r4,#0x3e]
        0x080009d0:    2600        .&      MOVS     r6,#0
        0x080009d2:    6426        &d      STR      r6,[r4,#0x40]
        0x080009d4:    f8c48024    ..$.    STR      r8,[r4,#0x24]
        0x080009d8:    8567        g.      STRH     r7,[r4,#0x2a]
        0x080009da:    8d60        `.      LDRH     r0,[r4,#0x2a]
        0x080009dc:    8520         .      STRH     r0,[r4,#0x28]
        0x080009de:    482d        -H      LDR      r0,[pc,#180] ; [0x8000a94] = 0xffff0000
        0x080009e0:    62e0        .b      STR      r0,[r4,#0x2c]
        0x080009e2:    462b        +F      MOV      r3,r5
        0x080009e4:    464a        JF      MOV      r2,r9
        0x080009e6:    4651        QF      MOV      r1,r10
        0x080009e8:    4620         F      MOV      r0,r4
        0x080009ea:    f001f9a3    ....    BL       I2C_MasterRequestWrite ; 0x8001d34
        0x080009ee:    b990        ..      CBNZ     r0,0x8000a16 ; HAL_I2C_Master_Transmit + 170
        0x080009f0:    6820         h      LDR      r0,[r4,#0]
        0x080009f2:    6941        Ai      LDR      r1,[r0,#0x14]
        0x080009f4:    6980        .i      LDR      r0,[r0,#0x18]
        0x080009f6:    9000        ..      STR      r0,[sp,#0]
        0x080009f8:    e036        6.      B        0x8000a68 ; HAL_I2C_Master_Transmit + 252
        0x080009fa:    462a        *F      MOV      r2,r5
        0x080009fc:    4649        IF      MOV      r1,r9
        0x080009fe:    4620         F      MOV      r0,r4
        0x08000a00:    f001fb0c    ....    BL       I2C_WaitOnTXEFlagUntilTimeout ; 0x800201c
        0x08000a04:    b150        P.      CBZ      r0,0x8000a1c ; HAL_I2C_Master_Transmit + 176
        0x08000a06:    6c20         l      LDR      r0,[r4,#0x40]
        0x08000a08:    2804        .(      CMP      r0,#4
        0x08000a0a:    d104        ..      BNE      0x8000a16 ; HAL_I2C_Master_Transmit + 170
        0x08000a0c:    6820         h      LDR      r0,[r4,#0]
        0x08000a0e:    6801        .h      LDR      r1,[r0,#0]
        0x08000a10:    f4417100    A..q    ORR      r1,r1,#0x200
        0x08000a14:    6001        .`      STR      r1,[r0,#0]
        0x08000a16:    2001        .       MOVS     r0,#1
        0x08000a18:    e8bd8ff8    ....    POP      {r3-r11,pc}
        0x08000a1c:    6a60        `j      LDR      r0,[r4,#0x24]
        0x08000a1e:    6821        !h      LDR      r1,[r4,#0]
        0x08000a20:    7800        .x      LDRB     r0,[r0,#0]
        0x08000a22:    6108        .a      STR      r0,[r1,#0x10]
        0x08000a24:    6a60        `j      LDR      r0,[r4,#0x24]
        0x08000a26:    1c40        @.      ADDS     r0,r0,#1
        0x08000a28:    6260        `b      STR      r0,[r4,#0x24]
        0x08000a2a:    8d61        a.      LDRH     r1,[r4,#0x2a]
        0x08000a2c:    1e49        I.      SUBS     r1,r1,#1
        0x08000a2e:    8561        a.      STRH     r1,[r4,#0x2a]
        0x08000a30:    8d21        !.      LDRH     r1,[r4,#0x28]
        0x08000a32:    1e49        I.      SUBS     r1,r1,#1
        0x08000a34:    b289        ..      UXTH     r1,r1
        0x08000a36:    8521        !.      STRH     r1,[r4,#0x28]
        0x08000a38:    6822        "h      LDR      r2,[r4,#0]
        0x08000a3a:    6953        Si      LDR      r3,[r2,#0x14]
        0x08000a3c:    43db        .C      MVNS     r3,r3
        0x08000a3e:    075b        [.      LSLS     r3,r3,#29
        0x08000a40:    d40b        ..      BMI      0x8000a5a ; HAL_I2C_Master_Transmit + 238
        0x08000a42:    b151        Q.      CBZ      r1,0x8000a5a ; HAL_I2C_Master_Transmit + 238
        0x08000a44:    7800        .x      LDRB     r0,[r0,#0]
        0x08000a46:    6110        .a      STR      r0,[r2,#0x10]
        0x08000a48:    6a60        `j      LDR      r0,[r4,#0x24]
        0x08000a4a:    1c40        @.      ADDS     r0,r0,#1
        0x08000a4c:    6260        `b      STR      r0,[r4,#0x24]
        0x08000a4e:    8d60        `.      LDRH     r0,[r4,#0x2a]
        0x08000a50:    1e40        @.      SUBS     r0,r0,#1
        0x08000a52:    8560        `.      STRH     r0,[r4,#0x2a]
        0x08000a54:    8d20         .      LDRH     r0,[r4,#0x28]
        0x08000a56:    1e40        @.      SUBS     r0,r0,#1
        0x08000a58:    8520         .      STRH     r0,[r4,#0x28]
        0x08000a5a:    462a        *F      MOV      r2,r5
        0x08000a5c:    4649        IF      MOV      r1,r9
        0x08000a5e:    4620         F      MOV      r0,r4
        0x08000a60:    f001fa0a    ....    BL       I2C_WaitOnBTFFlagUntilTimeout ; 0x8001e78
        0x08000a64:    2800        .(      CMP      r0,#0
        0x08000a66:    d1ce        ..      BNE      0x8000a06 ; HAL_I2C_Master_Transmit + 154
        0x08000a68:    8d20         .      LDRH     r0,[r4,#0x28]
        0x08000a6a:    2800        .(      CMP      r0,#0
        0x08000a6c:    d1c5        ..      BNE      0x80009fa ; HAL_I2C_Master_Transmit + 142
        0x08000a6e:    f8540b3d    T.=.    LDR      r0,[r4],#0x3d
        0x08000a72:    6801        .h      LDR      r1,[r0,#0]
        0x08000a74:    f4417100    A..q    ORR      r1,r1,#0x200
        0x08000a78:    6001        .`      STR      r1,[r0,#0]
        0x08000a7a:    2020                MOVS     r0,#0x20
        0x08000a7c:    f804091e    ....    STRB     r0,[r4],#-0x1e
        0x08000a80:    77e6        .w      STRB     r6,[r4,#0x1f]
        0x08000a82:    7766        fw      STRB     r6,[r4,#0x1d]
        0x08000a84:    2000        .       MOVS     r0,#0
        0x08000a86:    e7c7        ..      B        0x8000a18 ; HAL_I2C_Master_Transmit + 172
        0x08000a88:    e7ff        ..      B        0x8000a8a ; HAL_I2C_Master_Transmit + 286
        0x08000a8a:    2002        .       MOVS     r0,#2
        0x08000a8c:    e7c4        ..      B        0x8000a18 ; HAL_I2C_Master_Transmit + 172
    $d
        0x08000a8e:    0000        ..      DCW    0
        0x08000a90:    00100002    ....    DCD    1048578
        0x08000a94:    ffff0000    ....    DCD    4294901760
    $t
    i.HAL_I2C_Mem_Write
    HAL_I2C_Mem_Write
        0x08000a98:    e92d4fff    -..O    PUSH     {r0-r11,lr}
        0x08000a9c:    b083        ..      SUB      sp,sp,#0xc
        0x08000a9e:    469a        .F      MOV      r10,r3
        0x08000aa0:    e9dd9711    ....    LDRD     r9,r7,[sp,#0x44]
        0x08000aa4:    4693        .F      MOV      r11,r2
        0x08000aa6:    4604        .F      MOV      r4,r0
        0x08000aa8:    f8dd8040    ..@.    LDR      r8,[sp,#0x40]
        0x08000aac:    f7fffe94    ....    BL       HAL_GetTick ; 0x80007d8
        0x08000ab0:    4605        .F      MOV      r5,r0
        0x08000ab2:    f894003d    ..=.    LDRB     r0,[r4,#0x3d]
        0x08000ab6:    2820         (      CMP      r0,#0x20
        0x08000ab8:    d17f        ..      BNE      0x8000bba ; HAL_I2C_Mem_Write + 290
        0x08000aba:    2319        .#      MOVS     r3,#0x19
        0x08000abc:    2201        ."      MOVS     r2,#1
        0x08000abe:    4940        @I      LDR      r1,[pc,#256] ; [0x8000bc0] = 0x100002
        0x08000ac0:    4620         F      MOV      r0,r4
        0x08000ac2:    9500        ..      STR      r5,[sp,#0]
        0x08000ac4:    f001fa04    ....    BL       I2C_WaitOnFlagUntilTimeout ; 0x8001ed0
        0x08000ac8:    2800        .(      CMP      r0,#0
        0x08000aca:    d176        v.      BNE      0x8000bba ; HAL_I2C_Mem_Write + 290
        0x08000acc:    f894003c    ..<.    LDRB     r0,[r4,#0x3c]
        0x08000ad0:    2801        .(      CMP      r0,#1
        0x08000ad2:    d072        r.      BEQ      0x8000bba ; HAL_I2C_Mem_Write + 290
        0x08000ad4:    2001        .       MOVS     r0,#1
        0x08000ad6:    f884003c    ..<.    STRB     r0,[r4,#0x3c]
        0x08000ada:    6820         h      LDR      r0,[r4,#0]
        0x08000adc:    6801        .h      LDR      r1,[r0,#0]
        0x08000ade:    07c9        ..      LSLS     r1,r1,#31
        0x08000ae0:    d103        ..      BNE      0x8000aea ; HAL_I2C_Mem_Write + 82
        0x08000ae2:    6801        .h      LDR      r1,[r0,#0]
        0x08000ae4:    f0410101    A...    ORR      r1,r1,#1
        0x08000ae8:    6001        .`      STR      r1,[r0,#0]
        0x08000aea:    6820         h      LDR      r0,[r4,#0]
        0x08000aec:    6801        .h      LDR      r1,[r0,#0]
        0x08000aee:    f4216100    !..a    BIC      r1,r1,#0x800
        0x08000af2:    6001        .`      STR      r1,[r0,#0]
        0x08000af4:    2021        !       MOVS     r0,#0x21
        0x08000af6:    f884003d    ..=.    STRB     r0,[r4,#0x3d]
        0x08000afa:    2040        @       MOVS     r0,#0x40
        0x08000afc:    f884003e    ..>.    STRB     r0,[r4,#0x3e]
        0x08000b00:    2600        .&      MOVS     r6,#0
        0x08000b02:    6426        &d      STR      r6,[r4,#0x40]
        0x08000b04:    f8c48024    ..$.    STR      r8,[r4,#0x24]
        0x08000b08:    f8a4902a    ..*.    STRH     r9,[r4,#0x2a]
        0x08000b0c:    8d60        `.      LDRH     r0,[r4,#0x2a]
        0x08000b0e:    8520         .      STRH     r0,[r4,#0x28]
        0x08000b10:    482c        ,H      LDR      r0,[pc,#176] ; [0x8000bc4] = 0xffff0000
        0x08000b12:    62e0        .b      STR      r0,[r4,#0x2c]
        0x08000b14:    e9cd7500    ...u    STRD     r7,r5,[sp,#0]
        0x08000b18:    4653        SF      MOV      r3,r10
        0x08000b1a:    465a        ZF      MOV      r2,r11
        0x08000b1c:    4620         F      MOV      r0,r4
        0x08000b1e:    9904        ..      LDR      r1,[sp,#0x10]
        0x08000b20:    f001f956    ..V.    BL       I2C_RequestMemoryWrite ; 0x8001dd0
        0x08000b24:    b970        p.      CBNZ     r0,0x8000b44 ; HAL_I2C_Mem_Write + 172
        0x08000b26:    e030        0.      B        0x8000b8a ; HAL_I2C_Mem_Write + 242
        0x08000b28:    462a        *F      MOV      r2,r5
        0x08000b2a:    4639        9F      MOV      r1,r7
        0x08000b2c:    4620         F      MOV      r0,r4
        0x08000b2e:    f001fa75    ..u.    BL       I2C_WaitOnTXEFlagUntilTimeout ; 0x800201c
        0x08000b32:    b158        X.      CBZ      r0,0x8000b4c ; HAL_I2C_Mem_Write + 180
        0x08000b34:    6c20         l      LDR      r0,[r4,#0x40]
        0x08000b36:    2804        .(      CMP      r0,#4
        0x08000b38:    d104        ..      BNE      0x8000b44 ; HAL_I2C_Mem_Write + 172
        0x08000b3a:    6820         h      LDR      r0,[r4,#0]
        0x08000b3c:    6801        .h      LDR      r1,[r0,#0]
        0x08000b3e:    f4417100    A..q    ORR      r1,r1,#0x200
        0x08000b42:    6001        .`      STR      r1,[r0,#0]
        0x08000b44:    2001        .       MOVS     r0,#1
        0x08000b46:    b007        ..      ADD      sp,sp,#0x1c
        0x08000b48:    e8bd8ff0    ....    POP      {r4-r11,pc}
        0x08000b4c:    6a60        `j      LDR      r0,[r4,#0x24]
        0x08000b4e:    6821        !h      LDR      r1,[r4,#0]
        0x08000b50:    7800        .x      LDRB     r0,[r0,#0]
        0x08000b52:    6108        .a      STR      r0,[r1,#0x10]
        0x08000b54:    6a60        `j      LDR      r0,[r4,#0x24]
        0x08000b56:    1c40        @.      ADDS     r0,r0,#1
        0x08000b58:    6260        `b      STR      r0,[r4,#0x24]
        0x08000b5a:    8d21        !.      LDRH     r1,[r4,#0x28]
        0x08000b5c:    1e49        I.      SUBS     r1,r1,#1
        0x08000b5e:    b289        ..      UXTH     r1,r1
        0x08000b60:    8521        !.      STRH     r1,[r4,#0x28]
        0x08000b62:    8d62        b.      LDRH     r2,[r4,#0x2a]
        0x08000b64:    1e52        R.      SUBS     r2,r2,#1
        0x08000b66:    8562        b.      STRH     r2,[r4,#0x2a]
        0x08000b68:    6822        "h      LDR      r2,[r4,#0]
        0x08000b6a:    6953        Si      LDR      r3,[r2,#0x14]
        0x08000b6c:    43db        .C      MVNS     r3,r3
        0x08000b6e:    075b        [.      LSLS     r3,r3,#29
        0x08000b70:    d40b        ..      BMI      0x8000b8a ; HAL_I2C_Mem_Write + 242
        0x08000b72:    b169        i.      CBZ      r1,0x8000b90 ; HAL_I2C_Mem_Write + 248
        0x08000b74:    7800        .x      LDRB     r0,[r0,#0]
        0x08000b76:    6110        .a      STR      r0,[r2,#0x10]
        0x08000b78:    6a60        `j      LDR      r0,[r4,#0x24]
        0x08000b7a:    1c40        @.      ADDS     r0,r0,#1
        0x08000b7c:    6260        `b      STR      r0,[r4,#0x24]
        0x08000b7e:    8d20         .      LDRH     r0,[r4,#0x28]
        0x08000b80:    1e40        @.      SUBS     r0,r0,#1
        0x08000b82:    8520         .      STRH     r0,[r4,#0x28]
        0x08000b84:    8d60        `.      LDRH     r0,[r4,#0x2a]
        0x08000b86:    1e40        @.      SUBS     r0,r0,#1
        0x08000b88:    8560        `.      STRH     r0,[r4,#0x2a]
        0x08000b8a:    8d20         .      LDRH     r0,[r4,#0x28]
        0x08000b8c:    2800        .(      CMP      r0,#0
        0x08000b8e:    d1cb        ..      BNE      0x8000b28 ; HAL_I2C_Mem_Write + 144
        0x08000b90:    462a        *F      MOV      r2,r5
        0x08000b92:    4639        9F      MOV      r1,r7
        0x08000b94:    4620         F      MOV      r0,r4
        0x08000b96:    f001f96f    ..o.    BL       I2C_WaitOnBTFFlagUntilTimeout ; 0x8001e78
        0x08000b9a:    2800        .(      CMP      r0,#0
        0x08000b9c:    d1ca        ..      BNE      0x8000b34 ; HAL_I2C_Mem_Write + 156
        0x08000b9e:    f8540b3d    T.=.    LDR      r0,[r4],#0x3d
        0x08000ba2:    6801        .h      LDR      r1,[r0,#0]
        0x08000ba4:    f4417100    A..q    ORR      r1,r1,#0x200
        0x08000ba8:    6001        .`      STR      r1,[r0,#0]
        0x08000baa:    2020                MOVS     r0,#0x20
        0x08000bac:    f804091e    ....    STRB     r0,[r4],#-0x1e
        0x08000bb0:    77e6        .w      STRB     r6,[r4,#0x1f]
        0x08000bb2:    7766        fw      STRB     r6,[r4,#0x1d]
        0x08000bb4:    2000        .       MOVS     r0,#0
        0x08000bb6:    e7c6        ..      B        0x8000b46 ; HAL_I2C_Mem_Write + 174
        0x08000bb8:    e7ff        ..      B        0x8000bba ; HAL_I2C_Mem_Write + 290
        0x08000bba:    2002        .       MOVS     r0,#2
        0x08000bbc:    e7c3        ..      B        0x8000b46 ; HAL_I2C_Mem_Write + 174
    $d
        0x08000bbe:    0000        ..      DCW    0
        0x08000bc0:    00100002    ....    DCD    1048578
        0x08000bc4:    ffff0000    ....    DCD    4294901760
    $t
    i.HAL_I2C_MspInit
    HAL_I2C_MspInit
        0x08000bc8:    b510        ..      PUSH     {r4,lr}
        0x08000bca:    b086        ..      SUB      sp,sp,#0x18
        0x08000bcc:    2100        .!      MOVS     r1,#0
        0x08000bce:    9100        ..      STR      r1,[sp,#0]
        0x08000bd0:    9101        ..      STR      r1,[sp,#4]
        0x08000bd2:    9102        ..      STR      r1,[sp,#8]
        0x08000bd4:    9103        ..      STR      r1,[sp,#0xc]
        0x08000bd6:    6800        .h      LDR      r0,[r0,#0]
        0x08000bd8:    490f        .I      LDR      r1,[pc,#60] ; [0x8000c18] = 0x40005400
        0x08000bda:    4288        .B      CMP      r0,r1
        0x08000bdc:    d11a        ..      BNE      0x8000c14 ; HAL_I2C_MspInit + 76
        0x08000bde:    4c0f        .L      LDR      r4,[pc,#60] ; [0x8000c1c] = 0x40021000
        0x08000be0:    69a0        .i      LDR      r0,[r4,#0x18]
        0x08000be2:    f0400008    @...    ORR      r0,r0,#8
        0x08000be6:    61a0        .a      STR      r0,[r4,#0x18]
        0x08000be8:    69a0        .i      LDR      r0,[r4,#0x18]
        0x08000bea:    4669        iF      MOV      r1,sp
        0x08000bec:    f0000008    ....    AND      r0,r0,#8
        0x08000bf0:    9004        ..      STR      r0,[sp,#0x10]
        0x08000bf2:    20c0        .       MOVS     r0,#0xc0
        0x08000bf4:    9000        ..      STR      r0,[sp,#0]
        0x08000bf6:    2012        .       MOVS     r0,#0x12
        0x08000bf8:    9001        ..      STR      r0,[sp,#4]
        0x08000bfa:    2003        .       MOVS     r0,#3
        0x08000bfc:    9003        ..      STR      r0,[sp,#0xc]
        0x08000bfe:    4808        .H      LDR      r0,[pc,#32] ; [0x8000c20] = 0x40010c00
        0x08000c00:    f7fffcf0    ....    BL       HAL_GPIO_Init ; 0x80005e4
        0x08000c04:    69e0        .i      LDR      r0,[r4,#0x1c]
        0x08000c06:    f4401000    @...    ORR      r0,r0,#0x200000
        0x08000c0a:    61e0        .a      STR      r0,[r4,#0x1c]
        0x08000c0c:    69e0        .i      LDR      r0,[r4,#0x1c]
        0x08000c0e:    f4001000    ....    AND      r0,r0,#0x200000
        0x08000c12:    9004        ..      STR      r0,[sp,#0x10]
        0x08000c14:    b006        ..      ADD      sp,sp,#0x18
        0x08000c16:    bd10        ..      POP      {r4,pc}
    $d
        0x08000c18:    40005400    .T.@    DCD    1073763328
        0x08000c1c:    40021000    ...@    DCD    1073876992
        0x08000c20:    40010c00    ...@    DCD    1073810432
    $t
    i.HAL_IncTick
    HAL_IncTick
        0x08000c24:    4802        .H      LDR      r0,[pc,#8] ; [0x8000c30] = 0x20000004
        0x08000c26:    6881        .h      LDR      r1,[r0,#8]
        0x08000c28:    7802        .x      LDRB     r2,[r0,#0]
        0x08000c2a:    4411        .D      ADD      r1,r1,r2
        0x08000c2c:    6081        .`      STR      r1,[r0,#8]
        0x08000c2e:    4770        pG      BX       lr
    $d
        0x08000c30:    20000004    ...     DCD    536870916
    $t
    i.HAL_Init
    HAL_Init
        0x08000c34:    4807        .H      LDR      r0,[pc,#28] ; [0x8000c54] = 0x40022000
        0x08000c36:    b510        ..      PUSH     {r4,lr}
        0x08000c38:    6801        .h      LDR      r1,[r0,#0]
        0x08000c3a:    f0410110    A...    ORR      r1,r1,#0x10
        0x08000c3e:    6001        .`      STR      r1,[r0,#0]
        0x08000c40:    2003        .       MOVS     r0,#3
        0x08000c42:    f000f8a7    ....    BL       HAL_NVIC_SetPriorityGrouping ; 0x8000d94
        0x08000c46:    200f        .       MOVS     r0,#0xf
        0x08000c48:    f000f806    ....    BL       HAL_InitTick ; 0x8000c58
        0x08000c4c:    f000f850    ..P.    BL       HAL_MspInit ; 0x8000cf0
        0x08000c50:    2000        .       MOVS     r0,#0
        0x08000c52:    bd10        ..      POP      {r4,pc}
    $d
        0x08000c54:    40022000    . .@    DCD    1073881088
    $t
    i.HAL_InitTick
    HAL_InitTick
        0x08000c58:    b530        0.      PUSH     {r4,r5,lr}
        0x08000c5a:    4605        .F      MOV      r5,r0
        0x08000c5c:    481f        .H      LDR      r0,[pc,#124] ; [0x8000cdc] = 0x40021000
        0x08000c5e:    b087        ..      SUB      sp,sp,#0x1c
        0x08000c60:    69c1        .i      LDR      r1,[r0,#0x1c]
        0x08000c62:    f0410104    A...    ORR      r1,r1,#4
        0x08000c66:    61c1        .a      STR      r1,[r0,#0x1c]
        0x08000c68:    69c0        .i      LDR      r0,[r0,#0x1c]
        0x08000c6a:    a906        ..      ADD      r1,sp,#0x18
        0x08000c6c:    f0000004    ....    AND      r0,r0,#4
        0x08000c70:    9000        ..      STR      r0,[sp,#0]
        0x08000c72:    a801        ..      ADD      r0,sp,#4
        0x08000c74:    f000fa2e    ....    BL       HAL_RCC_GetClockConfig ; 0x80010d4
        0x08000c78:    9804        ..      LDR      r0,[sp,#0x10]
        0x08000c7a:    b1b0        ..      CBZ      r0,0x8000caa ; HAL_InitTick + 82
        0x08000c7c:    f000fa4a    ..J.    BL       HAL_RCC_GetPCLK1Freq ; 0x8001114
        0x08000c80:    0040        @.      LSLS     r0,r0,#1
        0x08000c82:    4917        .I      LDR      r1,[pc,#92] ; [0x8000ce0] = 0xf4240
        0x08000c84:    4a17        .J      LDR      r2,[pc,#92] ; [0x8000ce4] = 0x40000800
        0x08000c86:    fbb0f1f1    ....    UDIV     r1,r0,r1
        0x08000c8a:    4817        .H      LDR      r0,[pc,#92] ; [0x8000ce8] = 0x200005b4
        0x08000c8c:    1e49        I.      SUBS     r1,r1,#1
        0x08000c8e:    6002        .`      STR      r2,[r0,#0]
        0x08000c90:    6041        A`      STR      r1,[r0,#4]
        0x08000c92:    f24032e7    @..2    MOV      r2,#0x3e7
        0x08000c96:    2100        .!      MOVS     r1,#0
        0x08000c98:    e9c02103    ...!    STRD     r2,r1,[r0,#0xc]
        0x08000c9c:    6081        .`      STR      r1,[r0,#8]
        0x08000c9e:    6181        .a      STR      r1,[r0,#0x18]
        0x08000ca0:    f000fd00    ....    BL       HAL_TIM_Base_Init ; 0x80016a4
        0x08000ca4:    0004        ..      MOVS     r4,r0
        0x08000ca6:    d003        ..      BEQ      0x8000cb0 ; HAL_InitTick + 88
        0x08000ca8:    e015        ..      B        0x8000cd6 ; HAL_InitTick + 126
        0x08000caa:    f000fa33    ..3.    BL       HAL_RCC_GetPCLK1Freq ; 0x8001114
        0x08000cae:    e7e8        ..      B        0x8000c82 ; HAL_InitTick + 42
        0x08000cb0:    480d        .H      LDR      r0,[pc,#52] ; [0x8000ce8] = 0x200005b4
        0x08000cb2:    f000fd43    ..C.    BL       HAL_TIM_Base_Start_IT ; 0x800173c
        0x08000cb6:    0004        ..      MOVS     r4,r0
        0x08000cb8:    d10d        ..      BNE      0x8000cd6 ; HAL_InitTick + 126
        0x08000cba:    201e        .       MOVS     r0,#0x1e
        0x08000cbc:    f000f83c    ..<.    BL       HAL_NVIC_EnableIRQ ; 0x8000d38
        0x08000cc0:    2d10        .-      CMP      r5,#0x10
        0x08000cc2:    d207        ..      BCS      0x8000cd4 ; HAL_InitTick + 124
        0x08000cc4:    2200        ."      MOVS     r2,#0
        0x08000cc6:    4629        )F      MOV      r1,r5
        0x08000cc8:    201e        .       MOVS     r0,#0x1e
        0x08000cca:    f000f843    ..C.    BL       HAL_NVIC_SetPriority ; 0x8000d54
        0x08000cce:    4807        .H      LDR      r0,[pc,#28] ; [0x8000cec] = 0x20000008
        0x08000cd0:    6005        .`      STR      r5,[r0,#0]
        0x08000cd2:    e000        ..      B        0x8000cd6 ; HAL_InitTick + 126
        0x08000cd4:    2401        .$      MOVS     r4,#1
        0x08000cd6:    b007        ..      ADD      sp,sp,#0x1c
        0x08000cd8:    4620         F      MOV      r0,r4
        0x08000cda:    bd30        0.      POP      {r4,r5,pc}
    $d
        0x08000cdc:    40021000    ...@    DCD    1073876992
        0x08000ce0:    000f4240    @B..    DCD    1000000
        0x08000ce4:    40000800    ...@    DCD    1073743872
        0x08000ce8:    200005b4    ...     DCD    536872372
        0x08000cec:    20000008    ...     DCD    536870920
    $t
    i.HAL_MspInit
    HAL_MspInit
        0x08000cf0:    480f        .H      LDR      r0,[pc,#60] ; [0x8000d30] = 0x40021000
        0x08000cf2:    b508        ..      PUSH     {r3,lr}
        0x08000cf4:    6981        .i      LDR      r1,[r0,#0x18]
        0x08000cf6:    f0410101    A...    ORR      r1,r1,#1
        0x08000cfa:    6181        .a      STR      r1,[r0,#0x18]
        0x08000cfc:    6981        .i      LDR      r1,[r0,#0x18]
        0x08000cfe:    f0010101    ....    AND      r1,r1,#1
        0x08000d02:    9100        ..      STR      r1,[sp,#0]
        0x08000d04:    69c1        .i      LDR      r1,[r0,#0x1c]
        0x08000d06:    f0415180    A..Q    ORR      r1,r1,#0x10000000
        0x08000d0a:    61c1        .a      STR      r1,[r0,#0x1c]
        0x08000d0c:    69c0        .i      LDR      r0,[r0,#0x1c]
        0x08000d0e:    2200        ."      MOVS     r2,#0
        0x08000d10:    f0005080    ...P    AND      r0,r0,#0x10000000
        0x08000d14:    9000        ..      STR      r0,[sp,#0]
        0x08000d16:    210f        .!      MOVS     r1,#0xf
        0x08000d18:    1e90        ..      SUBS     r0,r2,#2
        0x08000d1a:    f000f81b    ....    BL       HAL_NVIC_SetPriority ; 0x8000d54
        0x08000d1e:    4805        .H      LDR      r0,[pc,#20] ; [0x8000d34] = 0x40010000
        0x08000d20:    6841        Ah      LDR      r1,[r0,#4]
        0x08000d22:    f02161e0    !..a    BIC      r1,r1,#0x7000000
        0x08000d26:    f0417100    A..q    ORR      r1,r1,#0x2000000
        0x08000d2a:    6041        A`      STR      r1,[r0,#4]
        0x08000d2c:    bd08        ..      POP      {r3,pc}
    $d
        0x08000d2e:    0000        ..      DCW    0
        0x08000d30:    40021000    ...@    DCD    1073876992
        0x08000d34:    40010000    ...@    DCD    1073807360
    $t
    i.HAL_NVIC_EnableIRQ
    HAL_NVIC_EnableIRQ
        0x08000d38:    2800        .(      CMP      r0,#0
        0x08000d3a:    db09        ..      BLT      0x8000d50 ; HAL_NVIC_EnableIRQ + 24
        0x08000d3c:    f000021f    ....    AND      r2,r0,#0x1f
        0x08000d40:    2101        .!      MOVS     r1,#1
        0x08000d42:    4091        .@      LSLS     r1,r1,r2
        0x08000d44:    0940        @.      LSRS     r0,r0,#5
        0x08000d46:    0080        ..      LSLS     r0,r0,#2
        0x08000d48:    f10020e0    ...     ADD      r0,r0,#0xe000e000
        0x08000d4c:    f8c01100    ....    STR      r1,[r0,#0x100]
        0x08000d50:    4770        pG      BX       lr
        0x08000d52:    0000        ..      MOVS     r0,r0
    i.HAL_NVIC_SetPriority
    HAL_NVIC_SetPriority
        0x08000d54:    b4f0        ..      PUSH     {r4-r7}
        0x08000d56:    4b0e        .K      LDR      r3,[pc,#56] ; [0x8000d90] = 0xe000ed0c
        0x08000d58:    681b        .h      LDR      r3,[r3,#0]
        0x08000d5a:    460c        .F      MOV      r4,r1
        0x08000d5c:    f3c32302    ...#    UBFX     r3,r3,#8,#3
        0x08000d60:    f1c30507    ....    RSB      r5,r3,#7
        0x08000d64:    2d04        .-      CMP      r5,#4
        0x08000d66:    d900        ..      BLS      0x8000d6a ; HAL_NVIC_SetPriority + 22
        0x08000d68:    2504        .%      MOVS     r5,#4
        0x08000d6a:    1d19        ..      ADDS     r1,r3,#4
        0x08000d6c:    2907        .)      CMP      r1,#7
        0x08000d6e:    d201        ..      BCS      0x8000d74 ; HAL_NVIC_SetPriority + 32
        0x08000d70:    2300        .#      MOVS     r3,#0
        0x08000d72:    e000        ..      B        0x8000d76 ; HAL_NVIC_SetPriority + 34
        0x08000d74:    1edb        ..      SUBS     r3,r3,#3
        0x08000d76:    2601        .&      MOVS     r6,#1
        0x08000d78:    fa06f105    ....    LSL      r1,r6,r5
        0x08000d7c:    1e49        I.      SUBS     r1,r1,#1
        0x08000d7e:    4021        !@      ANDS     r1,r1,r4
        0x08000d80:    4099        .@      LSLS     r1,r1,r3
        0x08000d82:    409e        .@      LSLS     r6,r6,r3
        0x08000d84:    1e76        v.      SUBS     r6,r6,#1
        0x08000d86:    4016        .@      ANDS     r6,r6,r2
        0x08000d88:    4331        1C      ORRS     r1,r1,r6
        0x08000d8a:    bcf0        ..      POP      {r4-r7}
        0x08000d8c:    f002b8b3    ....    B.W      __NVIC_SetPriority ; 0x8002ef6
    $d
        0x08000d90:    e000ed0c    ....    DCD    3758157068
    $t
    i.HAL_NVIC_SetPriorityGrouping
    HAL_NVIC_SetPriorityGrouping
        0x08000d94:    4906        .I      LDR      r1,[pc,#24] ; [0x8000db0] = 0xe000ed0c
        0x08000d96:    f0000207    ....    AND      r2,r0,#7
        0x08000d9a:    6808        .h      LDR      r0,[r1,#0]
        0x08000d9c:    f64f03ff    O...    MOV      r3,#0xf8ff
        0x08000da0:    4018        .@      ANDS     r0,r0,r3
        0x08000da2:    ea402002    @..     ORR      r0,r0,r2,LSL #8
        0x08000da6:    4a03        .J      LDR      r2,[pc,#12] ; [0x8000db4] = 0x5fa0000
        0x08000da8:    4310        .C      ORRS     r0,r0,r2
        0x08000daa:    6008        .`      STR      r0,[r1,#0]
        0x08000dac:    4770        pG      BX       lr
    $d
        0x08000dae:    0000        ..      DCW    0
        0x08000db0:    e000ed0c    ....    DCD    3758157068
        0x08000db4:    05fa0000    ....    DCD    100270080
    $t
    i.HAL_PCD_Init
    HAL_PCD_Init
        0x08000db8:    e92d41f0    -..A    PUSH     {r4-r8,lr}
        0x08000dbc:    b086        ..      SUB      sp,sp,#0x18
        0x08000dbe:    0004        ..      MOVS     r4,r0
        0x08000dc0:    d004        ..      BEQ      0x8000dcc ; HAL_PCD_Init + 20
        0x08000dc2:    f89402a9    ....    LDRB     r0,[r4,#0x2a9]
        0x08000dc6:    2500        .%      MOVS     r5,#0
        0x08000dc8:    b120         .      CBZ      r0,0x8000dd4 ; HAL_PCD_Init + 28
        0x08000dca:    e008        ..      B        0x8000dde ; HAL_PCD_Init + 38
        0x08000dcc:    2001        .       MOVS     r0,#1
        0x08000dce:    b006        ..      ADD      sp,sp,#0x18
        0x08000dd0:    e8bd81f0    ....    POP      {r4-r8,pc}
        0x08000dd4:    f88452a8    ...R    STRB     r5,[r4,#0x2a8]
        0x08000dd8:    4620         F      MOV      r0,r4
        0x08000dda:    f000f85b    ..[.    BL       HAL_PCD_MspInit ; 0x8000e94
        0x08000dde:    2003        .       MOVS     r0,#3
        0x08000de0:    f88402a9    ....    STRB     r0,[r4,#0x2a9]
        0x08000de4:    6820         h      LDR      r0,[r4,#0]
        0x08000de6:    f002f87c    ..|.    BL       USB_DisableGlobalInt ; 0x8002ee2
        0x08000dea:    f1040110    ....    ADD      r1,r4,#0x10
        0x08000dee:    2214        ."      MOVS     r2,#0x14
        0x08000df0:    4688        .F      MOV      r8,r1
        0x08000df2:    4668        hF      MOV      r0,sp
        0x08000df4:    f7fffa23    ..#.    BL       __aeabi_memcpy ; 0x800023e
        0x08000df8:    e894000f    ....    LDM      r4,{r0-r3}
        0x08000dfc:    f002f864    ..d.    BL       USB_CoreInit ; 0x8002ec8
        0x08000e00:    2702        .'      MOVS     r7,#2
        0x08000e02:    bbd0        ..      CBNZ     r0,0x8000e7a ; HAL_PCD_Init + 194
        0x08000e04:    2100        .!      MOVS     r1,#0
        0x08000e06:    6820         h      LDR      r0,[r4,#0]
        0x08000e08:    f002f872    ..r.    BL       USB_SetCurrentMode ; 0x8002ef0
        0x08000e0c:    2000        .       MOVS     r0,#0
        0x08000e0e:    2601        .&      MOVS     r6,#1
        0x08000e10:    e00e        ..      B        0x8000e30 ; HAL_PCD_Init + 120
        0x08000e12:    bf00        ..      NOP      
        0x08000e14:    eb000180    ....    ADD      r1,r0,r0,LSL #2
        0x08000e18:    eb0401c1    ....    ADD      r1,r4,r1,LSL #3
        0x08000e1c:    f8816029    ..)`    STRB     r6,[r1,#0x29]
        0x08000e20:    f8010f28    ..(.    STRB     r0,[r1,#0x28]!
        0x08000e24:    1c40        @.      ADDS     r0,r0,#1
        0x08000e26:    70cd        .p      STRB     r5,[r1,#3]
        0x08000e28:    610d        .a      STR      r5,[r1,#0x10]
        0x08000e2a:    614d        Ma      STR      r5,[r1,#0x14]
        0x08000e2c:    b2c0        ..      UXTB     r0,r0
        0x08000e2e:    618d        .a      STR      r5,[r1,#0x18]
        0x08000e30:    6861        ah      LDR      r1,[r4,#4]
        0x08000e32:    4281        .B      CMP      r1,r0
        0x08000e34:    d8ee        ..      BHI      0x8000e14 ; HAL_PCD_Init + 92
        0x08000e36:    2000        .       MOVS     r0,#0
        0x08000e38:    e012        ..      B        0x8000e60 ; HAL_PCD_Init + 168
        0x08000e3a:    bf00        ..      NOP      
        0x08000e3c:    eb000180    ....    ADD      r1,r0,r0,LSL #2
        0x08000e40:    eb0401c1    ....    ADD      r1,r4,r1,LSL #3
        0x08000e44:    f8815169    ..iQ    STRB     r5,[r1,#0x169]
        0x08000e48:    f8810168    ..h.    STRB     r0,[r1,#0x168]
        0x08000e4c:    f881516b    ..kQ    STRB     r5,[r1,#0x16b]
        0x08000e50:    f8c15178    ..xQ    STR      r5,[r1,#0x178]
        0x08000e54:    f8c1517c    ..|Q    STR      r5,[r1,#0x17c]
        0x08000e58:    1c40        @.      ADDS     r0,r0,#1
        0x08000e5a:    b2c0        ..      UXTB     r0,r0
        0x08000e5c:    f8c15180    ...Q    STR      r5,[r1,#0x180]
        0x08000e60:    6861        ah      LDR      r1,[r4,#4]
        0x08000e62:    4281        .B      CMP      r1,r0
        0x08000e64:    d8ea        ..      BHI      0x8000e3c ; HAL_PCD_Init + 132
        0x08000e66:    2214        ."      MOVS     r2,#0x14
        0x08000e68:    4641        AF      MOV      r1,r8
        0x08000e6a:    4668        hF      MOV      r0,sp
        0x08000e6c:    f7fff9e7    ....    BL       __aeabi_memcpy ; 0x800023e
        0x08000e70:    e894000f    ....    LDM      r4,{r0-r3}
        0x08000e74:    f002f82c    ..,.    BL       USB_DevInit ; 0x8002ed0
        0x08000e78:    b110        ..      CBZ      r0,0x8000e80 ; HAL_PCD_Init + 200
        0x08000e7a:    f88472a9    ...r    STRB     r7,[r4,#0x2a9]
        0x08000e7e:    e7a5        ..      B        0x8000dcc ; HAL_PCD_Init + 20
        0x08000e80:    f8845024    ..$P    STRB     r5,[r4,#0x24]
        0x08000e84:    f88462a9    ...b    STRB     r6,[r4,#0x2a9]
        0x08000e88:    6820         h      LDR      r0,[r4,#0]
        0x08000e8a:    f002f81f    ....    BL       USB_DevDisconnect ; 0x8002ecc
        0x08000e8e:    2000        .       MOVS     r0,#0
        0x08000e90:    e79d        ..      B        0x8000dce ; HAL_PCD_Init + 22
        0x08000e92:    0000        ..      MOVS     r0,r0
    i.HAL_PCD_MspInit
    HAL_PCD_MspInit
        0x08000e94:    b508        ..      PUSH     {r3,lr}
        0x08000e96:    6800        .h      LDR      r0,[r0,#0]
        0x08000e98:    4906        .I      LDR      r1,[pc,#24] ; [0x8000eb4] = 0x40005c00
        0x08000e9a:    4288        .B      CMP      r0,r1
        0x08000e9c:    d108        ..      BNE      0x8000eb0 ; HAL_PCD_MspInit + 28
        0x08000e9e:    4806        .H      LDR      r0,[pc,#24] ; [0x8000eb8] = 0x40021000
        0x08000ea0:    69c1        .i      LDR      r1,[r0,#0x1c]
        0x08000ea2:    f4410100    A...    ORR      r1,r1,#0x800000
        0x08000ea6:    61c1        .a      STR      r1,[r0,#0x1c]
        0x08000ea8:    69c0        .i      LDR      r0,[r0,#0x1c]
        0x08000eaa:    f4000000    ....    AND      r0,r0,#0x800000
        0x08000eae:    9000        ..      STR      r0,[sp,#0]
        0x08000eb0:    bd08        ..      POP      {r3,pc}
    $d
        0x08000eb2:    0000        ..      DCW    0
        0x08000eb4:    40005c00    .\.@    DCD    1073765376
        0x08000eb8:    40021000    ...@    DCD    1073876992
    $t
    i.HAL_RCCEx_PeriphCLKConfig
    HAL_RCCEx_PeriphCLKConfig
        0x08000ebc:    e92d43f8    -..C    PUSH     {r3-r9,lr}
        0x08000ec0:    4605        .F      MOV      r5,r0
        0x08000ec2:    7800        .x      LDRB     r0,[r0,#0]
        0x08000ec4:    4c35        5L      LDR      r4,[pc,#212] ; [0x8000f9c] = 0x40021000
        0x08000ec6:    07c0        ..      LSLS     r0,r0,#31
        0x08000ec8:    d054        T.      BEQ      0x8000f74 ; HAL_RCCEx_PeriphCLKConfig + 184
        0x08000eca:    69e0        .i      LDR      r0,[r4,#0x1c]
        0x08000ecc:    2600        .&      MOVS     r6,#0
        0x08000ece:    00c0        ..      LSLS     r0,r0,#3
        0x08000ed0:    d408        ..      BMI      0x8000ee4 ; HAL_RCCEx_PeriphCLKConfig + 40
        0x08000ed2:    69e0        .i      LDR      r0,[r4,#0x1c]
        0x08000ed4:    f0405080    @..P    ORR      r0,r0,#0x10000000
        0x08000ed8:    61e0        .a      STR      r0,[r4,#0x1c]
        0x08000eda:    69e0        .i      LDR      r0,[r4,#0x1c]
        0x08000edc:    2601        .&      MOVS     r6,#1
        0x08000ede:    f0005080    ...P    AND      r0,r0,#0x10000000
        0x08000ee2:    9000        ..      STR      r0,[sp,#0]
        0x08000ee4:    482e        .H      LDR      r0,[pc,#184] ; [0x8000fa0] = 0x40007000
        0x08000ee6:    6801        .h      LDR      r1,[r0,#0]
        0x08000ee8:    05c9        ..      LSLS     r1,r1,#23
        0x08000eea:    d412        ..      BMI      0x8000f12 ; HAL_RCCEx_PeriphCLKConfig + 86
        0x08000eec:    6801        .h      LDR      r1,[r0,#0]
        0x08000eee:    4680        .F      MOV      r8,r0
        0x08000ef0:    f4417180    A..q    ORR      r1,r1,#0x100
        0x08000ef4:    6001        .`      STR      r1,[r0,#0]
        0x08000ef6:    f7fffc6f    ..o.    BL       HAL_GetTick ; 0x80007d8
        0x08000efa:    4607        .F      MOV      r7,r0
        0x08000efc:    e005        ..      B        0x8000f0a ; HAL_RCCEx_PeriphCLKConfig + 78
        0x08000efe:    bf00        ..      NOP      
        0x08000f00:    f7fffc6a    ..j.    BL       HAL_GetTick ; 0x80007d8
        0x08000f04:    1bc0        ..      SUBS     r0,r0,r7
        0x08000f06:    2864        d(      CMP      r0,#0x64
        0x08000f08:    d823        #.      BHI      0x8000f52 ; HAL_RCCEx_PeriphCLKConfig + 150
        0x08000f0a:    f8d80000    ....    LDR      r0,[r8,#0]
        0x08000f0e:    05c0        ..      LSLS     r0,r0,#23
        0x08000f10:    d5f6        ..      BPL      0x8000f00 ; HAL_RCCEx_PeriphCLKConfig + 68
        0x08000f12:    6a20         j      LDR      r0,[r4,#0x20]
        0x08000f14:    f4107040    ..@p    ANDS     r0,r0,#0x300
        0x08000f18:    d021        !.      BEQ      0x8000f5e ; HAL_RCCEx_PeriphCLKConfig + 162
        0x08000f1a:    88a9        ..      LDRH     r1,[r5,#4]
        0x08000f1c:    f4017140    ..@q    AND      r1,r1,#0x300
        0x08000f20:    4281        .B      CMP      r1,r0
        0x08000f22:    d01c        ..      BEQ      0x8000f5e ; HAL_RCCEx_PeriphCLKConfig + 162
        0x08000f24:    6a20         j      LDR      r0,[r4,#0x20]
        0x08000f26:    491f        .I      LDR      r1,[pc,#124] ; [0x8000fa4] = 0x42420440
        0x08000f28:    2201        ."      MOVS     r2,#1
        0x08000f2a:    f4207040     .@p    BIC      r0,r0,#0x300
        0x08000f2e:    600a        .`      STR      r2,[r1,#0]
        0x08000f30:    2200        ."      MOVS     r2,#0
        0x08000f32:    600a        .`      STR      r2,[r1,#0]
        0x08000f34:    6220         b      STR      r0,[r4,#0x20]
        0x08000f36:    07c0        ..      LSLS     r0,r0,#31
        0x08000f38:    d011        ..      BEQ      0x8000f5e ; HAL_RCCEx_PeriphCLKConfig + 162
        0x08000f3a:    f7fffc4d    ..M.    BL       HAL_GetTick ; 0x80007d8
        0x08000f3e:    4607        .F      MOV      r7,r0
        0x08000f40:    f2413888    A..8    MOV      r8,#0x1388
        0x08000f44:    e008        ..      B        0x8000f58 ; HAL_RCCEx_PeriphCLKConfig + 156
        0x08000f46:    bf00        ..      NOP      
        0x08000f48:    f7fffc46    ..F.    BL       HAL_GetTick ; 0x80007d8
        0x08000f4c:    1bc1        ..      SUBS     r1,r0,r7
        0x08000f4e:    4541        AE      CMP      r1,r8
        0x08000f50:    d902        ..      BLS      0x8000f58 ; HAL_RCCEx_PeriphCLKConfig + 156
        0x08000f52:    2003        .       MOVS     r0,#3
        0x08000f54:    e8bd83f8    ....    POP      {r3-r9,pc}
        0x08000f58:    6a20         j      LDR      r0,[r4,#0x20]
        0x08000f5a:    0780        ..      LSLS     r0,r0,#30
        0x08000f5c:    d5f4        ..      BPL      0x8000f48 ; HAL_RCCEx_PeriphCLKConfig + 140
        0x08000f5e:    6a20         j      LDR      r0,[r4,#0x20]
        0x08000f60:    6869        ih      LDR      r1,[r5,#4]
        0x08000f62:    f4207040     .@p    BIC      r0,r0,#0x300
        0x08000f66:    4308        .C      ORRS     r0,r0,r1
        0x08000f68:    6220         b      STR      r0,[r4,#0x20]
        0x08000f6a:    b11e        ..      CBZ      r6,0x8000f74 ; HAL_RCCEx_PeriphCLKConfig + 184
        0x08000f6c:    69e0        .i      LDR      r0,[r4,#0x1c]
        0x08000f6e:    f0205080     ..P    BIC      r0,r0,#0x10000000
        0x08000f72:    61e0        .a      STR      r0,[r4,#0x1c]
        0x08000f74:    7828        (x      LDRB     r0,[r5,#0]
        0x08000f76:    0780        ..      LSLS     r0,r0,#30
        0x08000f78:    d505        ..      BPL      0x8000f86 ; HAL_RCCEx_PeriphCLKConfig + 202
        0x08000f7a:    6860        `h      LDR      r0,[r4,#4]
        0x08000f7c:    68a9        .h      LDR      r1,[r5,#8]
        0x08000f7e:    f4204040     .@@    BIC      r0,r0,#0xc000
        0x08000f82:    4308        .C      ORRS     r0,r0,r1
        0x08000f84:    6060        ``      STR      r0,[r4,#4]
        0x08000f86:    7828        (x      LDRB     r0,[r5,#0]
        0x08000f88:    06c0        ..      LSLS     r0,r0,#27
        0x08000f8a:    d505        ..      BPL      0x8000f98 ; HAL_RCCEx_PeriphCLKConfig + 220
        0x08000f8c:    6860        `h      LDR      r0,[r4,#4]
        0x08000f8e:    68e9        .h      LDR      r1,[r5,#0xc]
        0x08000f90:    f4200080     ...    BIC      r0,r0,#0x400000
        0x08000f94:    4308        .C      ORRS     r0,r0,r1
        0x08000f96:    6060        ``      STR      r0,[r4,#4]
        0x08000f98:    2000        .       MOVS     r0,#0
        0x08000f9a:    e7db        ..      B        0x8000f54 ; HAL_RCCEx_PeriphCLKConfig + 152
    $d
        0x08000f9c:    40021000    ...@    DCD    1073876992
        0x08000fa0:    40007000    .p.@    DCD    1073770496
        0x08000fa4:    42420440    @.BB    DCD    1111622720
    $t
    i.HAL_RCC_ClockConfig
    HAL_RCC_ClockConfig
        0x08000fa8:    e92d47f0    -..G    PUSH     {r4-r10,lr}
        0x08000fac:    460f        .F      MOV      r7,r1
        0x08000fae:    0005        ..      MOVS     r5,r0
        0x08000fb0:    d061        a.      BEQ      0x8001076 ; HAL_RCC_ClockConfig + 206
        0x08000fb2:    4e43        CN      LDR      r6,[pc,#268] ; [0x80010c0] = 0x40022000
        0x08000fb4:    6830        0h      LDR      r0,[r6,#0]
        0x08000fb6:    f0000007    ....    AND      r0,r0,#7
        0x08000fba:    42b8        .B      CMP      r0,r7
        0x08000fbc:    d209        ..      BCS      0x8000fd2 ; HAL_RCC_ClockConfig + 42
        0x08000fbe:    6830        0h      LDR      r0,[r6,#0]
        0x08000fc0:    f0200007     ...    BIC      r0,r0,#7
        0x08000fc4:    4338        8C      ORRS     r0,r0,r7
        0x08000fc6:    6030        0`      STR      r0,[r6,#0]
        0x08000fc8:    6830        0h      LDR      r0,[r6,#0]
        0x08000fca:    f0000007    ....    AND      r0,r0,#7
        0x08000fce:    42b8        .B      CMP      r0,r7
        0x08000fd0:    d151        Q.      BNE      0x8001076 ; HAL_RCC_ClockConfig + 206
        0x08000fd2:    6828        (h      LDR      r0,[r5,#0]
        0x08000fd4:    4c3b        ;L      LDR      r4,[pc,#236] ; [0x80010c4] = 0x40021000
        0x08000fd6:    0781        ..      LSLS     r1,r0,#30
        0x08000fd8:    d512        ..      BPL      0x8001000 ; HAL_RCC_ClockConfig + 88
        0x08000fda:    0740        @.      LSLS     r0,r0,#29
        0x08000fdc:    d503        ..      BPL      0x8000fe6 ; HAL_RCC_ClockConfig + 62
        0x08000fde:    6860        `h      LDR      r0,[r4,#4]
        0x08000fe0:    f44060e0    @..`    ORR      r0,r0,#0x700
        0x08000fe4:    6060        ``      STR      r0,[r4,#4]
        0x08000fe6:    7828        (x      LDRB     r0,[r5,#0]
        0x08000fe8:    0700        ..      LSLS     r0,r0,#28
        0x08000fea:    d503        ..      BPL      0x8000ff4 ; HAL_RCC_ClockConfig + 76
        0x08000fec:    6860        `h      LDR      r0,[r4,#4]
        0x08000fee:    f4405060    @.`P    ORR      r0,r0,#0x3800
        0x08000ff2:    6060        ``      STR      r0,[r4,#4]
        0x08000ff4:    6860        `h      LDR      r0,[r4,#4]
        0x08000ff6:    68a9        .h      LDR      r1,[r5,#8]
        0x08000ff8:    f02000f0     ...    BIC      r0,r0,#0xf0
        0x08000ffc:    4308        .C      ORRS     r0,r0,r1
        0x08000ffe:    6060        ``      STR      r0,[r4,#4]
        0x08001000:    7828        (x      LDRB     r0,[r5,#0]
        0x08001002:    07c0        ..      LSLS     r0,r0,#31
        0x08001004:    d028        (.      BEQ      0x8001058 ; HAL_RCC_ClockConfig + 176
        0x08001006:    6868        hh      LDR      r0,[r5,#4]
        0x08001008:    2801        .(      CMP      r0,#1
        0x0800100a:    d010        ..      BEQ      0x800102e ; HAL_RCC_ClockConfig + 134
        0x0800100c:    6821        !h      LDR      r1,[r4,#0]
        0x0800100e:    2802        .(      CMP      r0,#2
        0x08001010:    d010        ..      BEQ      0x8001034 ; HAL_RCC_ClockConfig + 140
        0x08001012:    0789        ..      LSLS     r1,r1,#30
        0x08001014:    2900        .)      CMP      r1,#0
        0x08001016:    da2e        ..      BGE      0x8001076 ; HAL_RCC_ClockConfig + 206
        0x08001018:    6861        ah      LDR      r1,[r4,#4]
        0x0800101a:    f0210103    !...    BIC      r1,r1,#3
        0x0800101e:    4301        .C      ORRS     r1,r1,r0
        0x08001020:    6061        a`      STR      r1,[r4,#4]
        0x08001022:    f7fffbd9    ....    BL       HAL_GetTick ; 0x80007d8
        0x08001026:    4680        .F      MOV      r8,r0
        0x08001028:    f2413988    A..9    MOV      r9,#0x1388
        0x0800102c:    e00d        ..      B        0x800104a ; HAL_RCC_ClockConfig + 162
        0x0800102e:    6821        !h      LDR      r1,[r4,#0]
        0x08001030:    0389        ..      LSLS     r1,r1,#14
        0x08001032:    e7ef        ..      B        0x8001014 ; HAL_RCC_ClockConfig + 108
        0x08001034:    0189        ..      LSLS     r1,r1,#6
        0x08001036:    e7ed        ..      B        0x8001014 ; HAL_RCC_ClockConfig + 108
        0x08001038:    f7fffbce    ....    BL       HAL_GetTick ; 0x80007d8
        0x0800103c:    eba00108    ....    SUB      r1,r0,r8
        0x08001040:    4549        IE      CMP      r1,r9
        0x08001042:    d902        ..      BLS      0x800104a ; HAL_RCC_ClockConfig + 162
        0x08001044:    2003        .       MOVS     r0,#3
        0x08001046:    e8bd87f0    ....    POP      {r4-r10,pc}
        0x0800104a:    6860        `h      LDR      r0,[r4,#4]
        0x0800104c:    6869        ih      LDR      r1,[r5,#4]
        0x0800104e:    f000000c    ....    AND      r0,r0,#0xc
        0x08001052:    ebb00f81    ....    CMP      r0,r1,LSL #2
        0x08001056:    d1ef        ..      BNE      0x8001038 ; HAL_RCC_ClockConfig + 144
        0x08001058:    6830        0h      LDR      r0,[r6,#0]
        0x0800105a:    f0000007    ....    AND      r0,r0,#7
        0x0800105e:    42b8        .B      CMP      r0,r7
        0x08001060:    d90b        ..      BLS      0x800107a ; HAL_RCC_ClockConfig + 210
        0x08001062:    6830        0h      LDR      r0,[r6,#0]
        0x08001064:    f0200007     ...    BIC      r0,r0,#7
        0x08001068:    4338        8C      ORRS     r0,r0,r7
        0x0800106a:    6030        0`      STR      r0,[r6,#0]
        0x0800106c:    6830        0h      LDR      r0,[r6,#0]
        0x0800106e:    f0000007    ....    AND      r0,r0,#7
        0x08001072:    42b8        .B      CMP      r0,r7
        0x08001074:    d001        ..      BEQ      0x800107a ; HAL_RCC_ClockConfig + 210
        0x08001076:    2001        .       MOVS     r0,#1
        0x08001078:    e7e5        ..      B        0x8001046 ; HAL_RCC_ClockConfig + 158
        0x0800107a:    7828        (x      LDRB     r0,[r5,#0]
        0x0800107c:    0740        @.      LSLS     r0,r0,#29
        0x0800107e:    d505        ..      BPL      0x800108c ; HAL_RCC_ClockConfig + 228
        0x08001080:    6860        `h      LDR      r0,[r4,#4]
        0x08001082:    68e9        .h      LDR      r1,[r5,#0xc]
        0x08001084:    f42060e0     ..`    BIC      r0,r0,#0x700
        0x08001088:    4308        .C      ORRS     r0,r0,r1
        0x0800108a:    6060        ``      STR      r0,[r4,#4]
        0x0800108c:    7828        (x      LDRB     r0,[r5,#0]
        0x0800108e:    0700        ..      LSLS     r0,r0,#28
        0x08001090:    d506        ..      BPL      0x80010a0 ; HAL_RCC_ClockConfig + 248
        0x08001092:    6860        `h      LDR      r0,[r4,#4]
        0x08001094:    6929        )i      LDR      r1,[r5,#0x10]
        0x08001096:    f4205060     .`P    BIC      r0,r0,#0x3800
        0x0800109a:    ea4000c1    @...    ORR      r0,r0,r1,LSL #3
        0x0800109e:    6060        ``      STR      r0,[r4,#4]
        0x080010a0:    f000f858    ..X.    BL       HAL_RCC_GetSysClockFreq ; 0x8001154
        0x080010a4:    6861        ah      LDR      r1,[r4,#4]
        0x080010a6:    4a08        .J      LDR      r2,[pc,#32] ; [0x80010c8] = 0x8004702
        0x080010a8:    f3c11103    ....    UBFX     r1,r1,#4,#4
        0x080010ac:    5c51        Q\      LDRB     r1,[r2,r1]
        0x080010ae:    40c8        .@      LSRS     r0,r0,r1
        0x080010b0:    4906        .I      LDR      r1,[pc,#24] ; [0x80010cc] = 0x20000010
        0x080010b2:    6008        .`      STR      r0,[r1,#0]
        0x080010b4:    4806        .H      LDR      r0,[pc,#24] ; [0x80010d0] = 0x20000008
        0x080010b6:    6800        .h      LDR      r0,[r0,#0]
        0x080010b8:    f7fffdce    ....    BL       HAL_InitTick ; 0x8000c58
        0x080010bc:    2000        .       MOVS     r0,#0
        0x080010be:    e7c2        ..      B        0x8001046 ; HAL_RCC_ClockConfig + 158
    $d
        0x080010c0:    40022000    . .@    DCD    1073881088
        0x080010c4:    40021000    ...@    DCD    1073876992
        0x080010c8:    08004702    .G..    DCD    134235906
        0x080010cc:    20000010    ...     DCD    536870928
        0x080010d0:    20000008    ...     DCD    536870920
    $t
    i.HAL_RCC_GetClockConfig
    HAL_RCC_GetClockConfig
        0x080010d4:    220f        ."      MOVS     r2,#0xf
        0x080010d6:    6002        .`      STR      r2,[r0,#0]
        0x080010d8:    4a0c        .J      LDR      r2,[pc,#48] ; [0x800110c] = 0x40021000
        0x080010da:    6853        Sh      LDR      r3,[r2,#4]
        0x080010dc:    f0030303    ....    AND      r3,r3,#3
        0x080010e0:    6043        C`      STR      r3,[r0,#4]
        0x080010e2:    6853        Sh      LDR      r3,[r2,#4]
        0x080010e4:    f00303f0    ....    AND      r3,r3,#0xf0
        0x080010e8:    6083        .`      STR      r3,[r0,#8]
        0x080010ea:    6853        Sh      LDR      r3,[r2,#4]
        0x080010ec:    f40363e0    ...c    AND      r3,r3,#0x700
        0x080010f0:    60c3        .`      STR      r3,[r0,#0xc]
        0x080010f2:    6852        Rh      LDR      r2,[r2,#4]
        0x080010f4:    f44f63e0    O..c    MOV      r3,#0x700
        0x080010f8:    ea0302d2    ....    AND      r2,r3,r2,LSR #3
        0x080010fc:    6102        .a      STR      r2,[r0,#0x10]
        0x080010fe:    4804        .H      LDR      r0,[pc,#16] ; [0x8001110] = 0x40022000
        0x08001100:    6800        .h      LDR      r0,[r0,#0]
        0x08001102:    f0000007    ....    AND      r0,r0,#7
        0x08001106:    6008        .`      STR      r0,[r1,#0]
        0x08001108:    4770        pG      BX       lr
    $d
        0x0800110a:    0000        ..      DCW    0
        0x0800110c:    40021000    ...@    DCD    1073876992
        0x08001110:    40022000    . .@    DCD    1073881088
    $t
    i.HAL_RCC_GetPCLK1Freq
    HAL_RCC_GetPCLK1Freq
        0x08001114:    4804        .H      LDR      r0,[pc,#16] ; [0x8001128] = 0x20000010
        0x08001116:    4905        .I      LDR      r1,[pc,#20] ; [0x800112c] = 0x40021000
        0x08001118:    6800        .h      LDR      r0,[r0,#0]
        0x0800111a:    6849        Ih      LDR      r1,[r1,#4]
        0x0800111c:    4a04        .J      LDR      r2,[pc,#16] ; [0x8001130] = 0x8004712
        0x0800111e:    f3c12102    ...!    UBFX     r1,r1,#8,#3
        0x08001122:    5c51        Q\      LDRB     r1,[r2,r1]
        0x08001124:    40c8        .@      LSRS     r0,r0,r1
        0x08001126:    4770        pG      BX       lr
    $d
        0x08001128:    20000010    ...     DCD    536870928
        0x0800112c:    40021000    ...@    DCD    1073876992
        0x08001130:    08004712    .G..    DCD    134235922
    $t
    i.HAL_RCC_GetPCLK2Freq
    HAL_RCC_GetPCLK2Freq
        0x08001134:    4804        .H      LDR      r0,[pc,#16] ; [0x8001148] = 0x20000010
        0x08001136:    4905        .I      LDR      r1,[pc,#20] ; [0x800114c] = 0x40021000
        0x08001138:    6800        .h      LDR      r0,[r0,#0]
        0x0800113a:    6849        Ih      LDR      r1,[r1,#4]
        0x0800113c:    4a04        .J      LDR      r2,[pc,#16] ; [0x8001150] = 0x8004712
        0x0800113e:    f3c121c2    ...!    UBFX     r1,r1,#11,#3
        0x08001142:    5c51        Q\      LDRB     r1,[r2,r1]
        0x08001144:    40c8        .@      LSRS     r0,r0,r1
        0x08001146:    4770        pG      BX       lr
    $d
        0x08001148:    20000010    ...     DCD    536870928
        0x0800114c:    40021000    ...@    DCD    1073876992
        0x08001150:    08004712    .G..    DCD    134235922
    $t
    i.HAL_RCC_GetSysClockFreq
    HAL_RCC_GetSysClockFreq
        0x08001154:    4a0e        .J      LDR      r2,[pc,#56] ; [0x8001190] = 0x40021000
        0x08001156:    6851        Qh      LDR      r1,[r2,#4]
        0x08001158:    480e        .H      LDR      r0,[pc,#56] ; [0x8001194] = 0x7a1200
        0x0800115a:    f001030c    ....    AND      r3,r1,#0xc
        0x0800115e:    2b04        .+      CMP      r3,#4
        0x08001160:    d011        ..      BEQ      0x8001186 ; HAL_RCC_GetSysClockFreq + 50
        0x08001162:    2b08        .+      CMP      r3,#8
        0x08001164:    d10f        ..      BNE      0x8001186 ; HAL_RCC_GetSysClockFreq + 50
        0x08001166:    480c        .H      LDR      r0,[pc,#48] ; [0x8001198] = 0x80046f2
        0x08001168:    f3c14383    ...C    UBFX     r3,r1,#18,#4
        0x0800116c:    03c9        ..      LSLS     r1,r1,#15
        0x0800116e:    5cc0        .\      LDRB     r0,[r0,r3]
        0x08001170:    d50a        ..      BPL      0x8001188 ; HAL_RCC_GetSysClockFreq + 52
        0x08001172:    6851        Qh      LDR      r1,[r2,#4]
        0x08001174:    4a08        .J      LDR      r2,[pc,#32] ; [0x8001198] = 0x80046f2
        0x08001176:    f3c14140    ..@A    UBFX     r1,r1,#17,#1
        0x0800117a:    1e92        ..      SUBS     r2,r2,#2
        0x0800117c:    5c51        Q\      LDRB     r1,[r2,r1]
        0x0800117e:    4a05        .J      LDR      r2,[pc,#20] ; [0x8001194] = 0x7a1200
        0x08001180:    4350        PC      MULS     r0,r2,r0
        0x08001182:    fbb0f0f1    ....    UDIV     r0,r0,r1
        0x08001186:    4770        pG      BX       lr
        0x08001188:    4904        .I      LDR      r1,[pc,#16] ; [0x800119c] = 0x3d0900
        0x0800118a:    4348        HC      MULS     r0,r1,r0
        0x0800118c:    4770        pG      BX       lr
    $d
        0x0800118e:    0000        ..      DCW    0
        0x08001190:    40021000    ...@    DCD    1073876992
        0x08001194:    007a1200    ..z.    DCD    8000000
        0x08001198:    080046f2    .F..    DCD    134235890
        0x0800119c:    003d0900    ..=.    DCD    4000000
    $t
    i.HAL_RCC_OscConfig
    HAL_RCC_OscConfig
        0x080011a0:    e92d4ff8    -..O    PUSH     {r3-r11,lr}
        0x080011a4:    0004        ..      MOVS     r4,r0
        0x080011a6:    d070        p.      BEQ      0x800128a ; HAL_RCC_OscConfig + 234
        0x080011a8:    7820         x      LDRB     r0,[r4,#0]
        0x080011aa:    4dc0        .M      LDR      r5,[pc,#768] ; [0x80014ac] = 0x40021000
        0x080011ac:    07c0        ..      LSLS     r0,r0,#31
        0x080011ae:    d049        I.      BEQ      0x8001244 ; HAL_RCC_OscConfig + 164
        0x080011b0:    6868        hh      LDR      r0,[r5,#4]
        0x080011b2:    f3c00081    ....    UBFX     r0,r0,#2,#2
        0x080011b6:    2801        .(      CMP      r0,#1
        0x080011b8:    d007        ..      BEQ      0x80011ca ; HAL_RCC_OscConfig + 42
        0x080011ba:    6868        hh      LDR      r0,[r5,#4]
        0x080011bc:    f3c00081    ....    UBFX     r0,r0,#2,#2
        0x080011c0:    2802        .(      CMP      r0,#2
        0x080011c2:    d109        ..      BNE      0x80011d8 ; HAL_RCC_OscConfig + 56
        0x080011c4:    6868        hh      LDR      r0,[r5,#4]
        0x080011c6:    03c0        ..      LSLS     r0,r0,#15
        0x080011c8:    d506        ..      BPL      0x80011d8 ; HAL_RCC_OscConfig + 56
        0x080011ca:    6828        (h      LDR      r0,[r5,#0]
        0x080011cc:    0380        ..      LSLS     r0,r0,#14
        0x080011ce:    d539        9.      BPL      0x8001244 ; HAL_RCC_OscConfig + 164
        0x080011d0:    6860        `h      LDR      r0,[r4,#4]
        0x080011d2:    2800        .(      CMP      r0,#0
        0x080011d4:    d0e7        ..      BEQ      0x80011a6 ; HAL_RCC_OscConfig + 6
        0x080011d6:    e035        5.      B        0x8001244 ; HAL_RCC_OscConfig + 164
        0x080011d8:    6860        `h      LDR      r0,[r4,#4]
        0x080011da:    f5b03f80    ...?    CMP      r0,#0x10000
        0x080011de:    d00b        ..      BEQ      0x80011f8 ; HAL_RCC_OscConfig + 88
        0x080011e0:    b110        ..      CBZ      r0,0x80011e8 ; HAL_RCC_OscConfig + 72
        0x080011e2:    f5b02fa0    .../    CMP      r0,#0x50000
        0x080011e6:    d011        ..      BEQ      0x800120c ; HAL_RCC_OscConfig + 108
        0x080011e8:    6828        (h      LDR      r0,[r5,#0]
        0x080011ea:    f4203080     ..0    BIC      r0,r0,#0x10000
        0x080011ee:    6028        (`      STR      r0,[r5,#0]
        0x080011f0:    6828        (h      LDR      r0,[r5,#0]
        0x080011f2:    f4202080     ..     BIC      r0,r0,#0x40000
        0x080011f6:    e002        ..      B        0x80011fe ; HAL_RCC_OscConfig + 94
        0x080011f8:    6828        (h      LDR      r0,[r5,#0]
        0x080011fa:    f4403080    @..0    ORR      r0,r0,#0x10000
        0x080011fe:    6028        (`      STR      r0,[r5,#0]
        0x08001200:    6860        `h      LDR      r0,[r4,#4]
        0x08001202:    b190        ..      CBZ      r0,0x800122a ; HAL_RCC_OscConfig + 138
        0x08001204:    f7fffae8    ....    BL       HAL_GetTick ; 0x80007d8
        0x08001208:    4606        .F      MOV      r6,r0
        0x0800120a:    e00a        ..      B        0x8001222 ; HAL_RCC_OscConfig + 130
        0x0800120c:    6828        (h      LDR      r0,[r5,#0]
        0x0800120e:    f4402080    @..     ORR      r0,r0,#0x40000
        0x08001212:    6028        (`      STR      r0,[r5,#0]
        0x08001214:    e7f0        ..      B        0x80011f8 ; HAL_RCC_OscConfig + 88
        0x08001216:    bf00        ..      NOP      
        0x08001218:    f7fffade    ....    BL       HAL_GetTick ; 0x80007d8
        0x0800121c:    1b80        ..      SUBS     r0,r0,r6
        0x0800121e:    2864        d(      CMP      r0,#0x64
        0x08001220:    d873        s.      BHI      0x800130a ; HAL_RCC_OscConfig + 362
        0x08001222:    6828        (h      LDR      r0,[r5,#0]
        0x08001224:    0380        ..      LSLS     r0,r0,#14
        0x08001226:    d5f7        ..      BPL      0x8001218 ; HAL_RCC_OscConfig + 120
        0x08001228:    e00c        ..      B        0x8001244 ; HAL_RCC_OscConfig + 164
        0x0800122a:    f7fffad5    ....    BL       HAL_GetTick ; 0x80007d8
        0x0800122e:    4606        .F      MOV      r6,r0
        0x08001230:    e005        ..      B        0x800123e ; HAL_RCC_OscConfig + 158
        0x08001232:    bf00        ..      NOP      
        0x08001234:    f7fffad0    ....    BL       HAL_GetTick ; 0x80007d8
        0x08001238:    1b80        ..      SUBS     r0,r0,r6
        0x0800123a:    2864        d(      CMP      r0,#0x64
        0x0800123c:    d8f0        ..      BHI      0x8001220 ; HAL_RCC_OscConfig + 128
        0x0800123e:    6828        (h      LDR      r0,[r5,#0]
        0x08001240:    0380        ..      LSLS     r0,r0,#14
        0x08001242:    d4f7        ..      BMI      0x8001234 ; HAL_RCC_OscConfig + 148
        0x08001244:    7820         x      LDRB     r0,[r4,#0]
        0x08001246:    4e9a        .N      LDR      r6,[pc,#616] ; [0x80014b0] = 0x42420000
        0x08001248:    0780        ..      LSLS     r0,r0,#30
        0x0800124a:    f04f0901    O...    MOV      r9,#1
        0x0800124e:    f04f0800    O...    MOV      r8,#0
        0x08001252:    d539        9.      BPL      0x80012c8 ; HAL_RCC_OscConfig + 296
        0x08001254:    6868        hh      LDR      r0,[r5,#4]
        0x08001256:    f0100f0c    ....    TST      r0,#0xc
        0x0800125a:    d007        ..      BEQ      0x800126c ; HAL_RCC_OscConfig + 204
        0x0800125c:    6868        hh      LDR      r0,[r5,#4]
        0x0800125e:    f3c00081    ....    UBFX     r0,r0,#2,#2
        0x08001262:    2802        .(      CMP      r0,#2
        0x08001264:    d109        ..      BNE      0x800127a ; HAL_RCC_OscConfig + 218
        0x08001266:    6868        hh      LDR      r0,[r5,#4]
        0x08001268:    03c0        ..      LSLS     r0,r0,#15
        0x0800126a:    d406        ..      BMI      0x800127a ; HAL_RCC_OscConfig + 218
        0x0800126c:    6828        (h      LDR      r0,[r5,#0]
        0x0800126e:    0780        ..      LSLS     r0,r0,#30
        0x08001270:    d514        ..      BPL      0x800129c ; HAL_RCC_OscConfig + 252
        0x08001272:    6920         i      LDR      r0,[r4,#0x10]
        0x08001274:    2801        .(      CMP      r0,#1
        0x08001276:    d108        ..      BNE      0x800128a ; HAL_RCC_OscConfig + 234
        0x08001278:    e010        ..      B        0x800129c ; HAL_RCC_OscConfig + 252
        0x0800127a:    6920         i      LDR      r0,[r4,#0x10]
        0x0800127c:    b1b0        ..      CBZ      r0,0x80012ac ; HAL_RCC_OscConfig + 268
        0x0800127e:    f8c69000    ....    STR      r9,[r6,#0]
        0x08001282:    f7fffaa9    ....    BL       HAL_GetTick ; 0x80007d8
        0x08001286:    4607        .F      MOV      r7,r0
        0x08001288:    e005        ..      B        0x8001296 ; HAL_RCC_OscConfig + 246
        0x0800128a:    e10a        ..      B        0x80014a2 ; HAL_RCC_OscConfig + 770
        0x0800128c:    f7fffaa4    ....    BL       HAL_GetTick ; 0x80007d8
        0x08001290:    1bc0        ..      SUBS     r0,r0,r7
        0x08001292:    2802        .(      CMP      r0,#2
        0x08001294:    d8c4        ..      BHI      0x8001220 ; HAL_RCC_OscConfig + 128
        0x08001296:    6828        (h      LDR      r0,[r5,#0]
        0x08001298:    0780        ..      LSLS     r0,r0,#30
        0x0800129a:    d5f7        ..      BPL      0x800128c ; HAL_RCC_OscConfig + 236
        0x0800129c:    6828        (h      LDR      r0,[r5,#0]
        0x0800129e:    6961        ai      LDR      r1,[r4,#0x14]
        0x080012a0:    f02000f8     ...    BIC      r0,r0,#0xf8
        0x080012a4:    ea4000c1    @...    ORR      r0,r0,r1,LSL #3
        0x080012a8:    6028        (`      STR      r0,[r5,#0]
        0x080012aa:    e00d        ..      B        0x80012c8 ; HAL_RCC_OscConfig + 296
        0x080012ac:    f8c68000    ....    STR      r8,[r6,#0]
        0x080012b0:    f7fffa92    ....    BL       HAL_GetTick ; 0x80007d8
        0x080012b4:    4607        .F      MOV      r7,r0
        0x080012b6:    e004        ..      B        0x80012c2 ; HAL_RCC_OscConfig + 290
        0x080012b8:    f7fffa8e    ....    BL       HAL_GetTick ; 0x80007d8
        0x080012bc:    1bc0        ..      SUBS     r0,r0,r7
        0x080012be:    2802        .(      CMP      r0,#2
        0x080012c0:    d823        #.      BHI      0x800130a ; HAL_RCC_OscConfig + 362
        0x080012c2:    6828        (h      LDR      r0,[r5,#0]
        0x080012c4:    0780        ..      LSLS     r0,r0,#30
        0x080012c6:    d4f7        ..      BMI      0x80012b8 ; HAL_RCC_OscConfig + 280
        0x080012c8:    7820         x      LDRB     r0,[r4,#0]
        0x080012ca:    0700        ..      LSLS     r0,r0,#28
        0x080012cc:    d52c        ,.      BPL      0x8001328 ; HAL_RCC_OscConfig + 392
        0x080012ce:    4879        yH      LDR      r0,[pc,#484] ; [0x80014b4] = 0x42420480
        0x080012d0:    69a1        .i      LDR      r1,[r4,#0x18]
        0x080012d2:    b1d9        ..      CBZ      r1,0x800130c ; HAL_RCC_OscConfig + 364
        0x080012d4:    f8c09000    ....    STR      r9,[r0,#0]
        0x080012d8:    f7fffa7e    ..~.    BL       HAL_GetTick ; 0x80007d8
        0x080012dc:    4607        .F      MOV      r7,r0
        0x080012de:    e004        ..      B        0x80012ea ; HAL_RCC_OscConfig + 330
        0x080012e0:    f7fffa7a    ..z.    BL       HAL_GetTick ; 0x80007d8
        0x080012e4:    1bc0        ..      SUBS     r0,r0,r7
        0x080012e6:    2802        .(      CMP      r0,#2
        0x080012e8:    d80f        ..      BHI      0x800130a ; HAL_RCC_OscConfig + 362
        0x080012ea:    6a68        hj      LDR      r0,[r5,#0x24]
        0x080012ec:    0780        ..      LSLS     r0,r0,#30
        0x080012ee:    d5f7        ..      BPL      0x80012e0 ; HAL_RCC_OscConfig + 320
        0x080012f0:    4871        qH      LDR      r0,[pc,#452] ; [0x80014b8] = 0x20000010
        0x080012f2:    f44f51fa    O..Q    MOV      r1,#0x1f40
        0x080012f6:    6800        .h      LDR      r0,[r0,#0]
        0x080012f8:    fbb0f0f1    ....    UDIV     r0,r0,r1
        0x080012fc:    9000        ..      STR      r0,[sp,#0]
        0x080012fe:    bf00        ..      NOP      
        0x08001300:    9800        ..      LDR      r0,[sp,#0]
        0x08001302:    1e41        A.      SUBS     r1,r0,#1
        0x08001304:    9100        ..      STR      r1,[sp,#0]
        0x08001306:    d2fa        ..      BCS      0x80012fe ; HAL_RCC_OscConfig + 350
        0x08001308:    e00e        ..      B        0x8001328 ; HAL_RCC_OscConfig + 392
        0x0800130a:    e080        ..      B        0x800140e ; HAL_RCC_OscConfig + 622
        0x0800130c:    f8c08000    ....    STR      r8,[r0,#0]
        0x08001310:    f7fffa62    ..b.    BL       HAL_GetTick ; 0x80007d8
        0x08001314:    4607        .F      MOV      r7,r0
        0x08001316:    e004        ..      B        0x8001322 ; HAL_RCC_OscConfig + 386
        0x08001318:    f7fffa5e    ..^.    BL       HAL_GetTick ; 0x80007d8
        0x0800131c:    1bc0        ..      SUBS     r0,r0,r7
        0x0800131e:    2802        .(      CMP      r0,#2
        0x08001320:    d875        u.      BHI      0x800140e ; HAL_RCC_OscConfig + 622
        0x08001322:    6a68        hj      LDR      r0,[r5,#0x24]
        0x08001324:    0780        ..      LSLS     r0,r0,#30
        0x08001326:    d4f7        ..      BMI      0x8001318 ; HAL_RCC_OscConfig + 376
        0x08001328:    7820         x      LDRB     r0,[r4,#0]
        0x0800132a:    0740        @.      LSLS     r0,r0,#29
        0x0800132c:    d560        `.      BPL      0x80013f0 ; HAL_RCC_OscConfig + 592
        0x0800132e:    69e8        .i      LDR      r0,[r5,#0x1c]
        0x08001330:    2700        .'      MOVS     r7,#0
        0x08001332:    00c0        ..      LSLS     r0,r0,#3
        0x08001334:    d408        ..      BMI      0x8001348 ; HAL_RCC_OscConfig + 424
        0x08001336:    69e8        .i      LDR      r0,[r5,#0x1c]
        0x08001338:    f0405080    @..P    ORR      r0,r0,#0x10000000
        0x0800133c:    61e8        .a      STR      r0,[r5,#0x1c]
        0x0800133e:    69e8        .i      LDR      r0,[r5,#0x1c]
        0x08001340:    2701        .'      MOVS     r7,#1
        0x08001342:    f0005080    ...P    AND      r0,r0,#0x10000000
        0x08001346:    9000        ..      STR      r0,[sp,#0]
        0x08001348:    485c        \H      LDR      r0,[pc,#368] ; [0x80014bc] = 0x40007000
        0x0800134a:    6801        .h      LDR      r1,[r0,#0]
        0x0800134c:    05c9        ..      LSLS     r1,r1,#23
        0x0800134e:    d413        ..      BMI      0x8001378 ; HAL_RCC_OscConfig + 472
        0x08001350:    6801        .h      LDR      r1,[r0,#0]
        0x08001352:    4683        .F      MOV      r11,r0
        0x08001354:    f4417180    A..q    ORR      r1,r1,#0x100
        0x08001358:    6001        .`      STR      r1,[r0,#0]
        0x0800135a:    f7fffa3d    ..=.    BL       HAL_GetTick ; 0x80007d8
        0x0800135e:    4682        .F      MOV      r10,r0
        0x08001360:    e006        ..      B        0x8001370 ; HAL_RCC_OscConfig + 464
        0x08001362:    bf00        ..      NOP      
        0x08001364:    f7fffa38    ..8.    BL       HAL_GetTick ; 0x80007d8
        0x08001368:    eba0000a    ....    SUB      r0,r0,r10
        0x0800136c:    2864        d(      CMP      r0,#0x64
        0x0800136e:    d84e        N.      BHI      0x800140e ; HAL_RCC_OscConfig + 622
        0x08001370:    f8db0000    ....    LDR      r0,[r11,#0]
        0x08001374:    05c0        ..      LSLS     r0,r0,#23
        0x08001376:    d5f5        ..      BPL      0x8001364 ; HAL_RCC_OscConfig + 452
        0x08001378:    68e0        .h      LDR      r0,[r4,#0xc]
        0x0800137a:    2801        .(      CMP      r0,#1
        0x0800137c:    d00a        ..      BEQ      0x8001394 ; HAL_RCC_OscConfig + 500
        0x0800137e:    b108        ..      CBZ      r0,0x8001384 ; HAL_RCC_OscConfig + 484
        0x08001380:    2805        .(      CMP      r0,#5
        0x08001382:    d013        ..      BEQ      0x80013ac ; HAL_RCC_OscConfig + 524
        0x08001384:    6a28        (j      LDR      r0,[r5,#0x20]
        0x08001386:    f0200001     ...    BIC      r0,r0,#1
        0x0800138a:    6228        (b      STR      r0,[r5,#0x20]
        0x0800138c:    6a28        (j      LDR      r0,[r5,#0x20]
        0x0800138e:    f0200004     ...    BIC      r0,r0,#4
        0x08001392:    e002        ..      B        0x800139a ; HAL_RCC_OscConfig + 506
        0x08001394:    6a28        (j      LDR      r0,[r5,#0x20]
        0x08001396:    f0400001    @...    ORR      r0,r0,#1
        0x0800139a:    6228        (b      STR      r0,[r5,#0x20]
        0x0800139c:    68e0        .h      LDR      r0,[r4,#0xc]
        0x0800139e:    f2413b88    A..;    MOV      r11,#0x1388
        0x080013a2:    b198        ..      CBZ      r0,0x80013cc ; HAL_RCC_OscConfig + 556
        0x080013a4:    f7fffa18    ....    BL       HAL_GetTick ; 0x80007d8
        0x080013a8:    4682        .F      MOV      r10,r0
        0x080013aa:    e00b        ..      B        0x80013c4 ; HAL_RCC_OscConfig + 548
        0x080013ac:    6a28        (j      LDR      r0,[r5,#0x20]
        0x080013ae:    f0400004    @...    ORR      r0,r0,#4
        0x080013b2:    6228        (b      STR      r0,[r5,#0x20]
        0x080013b4:    e7ee        ..      B        0x8001394 ; HAL_RCC_OscConfig + 500
        0x080013b6:    bf00        ..      NOP      
        0x080013b8:    f7fffa0e    ....    BL       HAL_GetTick ; 0x80007d8
        0x080013bc:    eba0010a    ....    SUB      r1,r0,r10
        0x080013c0:    4559        YE      CMP      r1,r11
        0x080013c2:    d85a        Z.      BHI      0x800147a ; HAL_RCC_OscConfig + 730
        0x080013c4:    6a28        (j      LDR      r0,[r5,#0x20]
        0x080013c6:    0780        ..      LSLS     r0,r0,#30
        0x080013c8:    d5f6        ..      BPL      0x80013b8 ; HAL_RCC_OscConfig + 536
        0x080013ca:    e00c        ..      B        0x80013e6 ; HAL_RCC_OscConfig + 582
        0x080013cc:    f7fffa04    ....    BL       HAL_GetTick ; 0x80007d8
        0x080013d0:    4682        .F      MOV      r10,r0
        0x080013d2:    e005        ..      B        0x80013e0 ; HAL_RCC_OscConfig + 576
        0x080013d4:    f7fffa00    ....    BL       HAL_GetTick ; 0x80007d8
        0x080013d8:    eba0010a    ....    SUB      r1,r0,r10
        0x080013dc:    4559        YE      CMP      r1,r11
        0x080013de:    d84c        L.      BHI      0x800147a ; HAL_RCC_OscConfig + 730
        0x080013e0:    6a28        (j      LDR      r0,[r5,#0x20]
        0x080013e2:    0780        ..      LSLS     r0,r0,#30
        0x080013e4:    d4f6        ..      BMI      0x80013d4 ; HAL_RCC_OscConfig + 564
        0x080013e6:    b11f        ..      CBZ      r7,0x80013f0 ; HAL_RCC_OscConfig + 592
        0x080013e8:    69e8        .i      LDR      r0,[r5,#0x1c]
        0x080013ea:    f0205080     ..P    BIC      r0,r0,#0x10000000
        0x080013ee:    61e8        .a      STR      r0,[r5,#0x1c]
        0x080013f0:    69e0        .i      LDR      r0,[r4,#0x1c]
        0x080013f2:    b388        ..      CBZ      r0,0x8001458 ; HAL_RCC_OscConfig + 696
        0x080013f4:    6869        ih      LDR      r1,[r5,#4]
        0x080013f6:    f3c10181    ....    UBFX     r1,r1,#2,#2
        0x080013fa:    2902        .)      CMP      r1,#2
        0x080013fc:    d044        D.      BEQ      0x8001488 ; HAL_RCC_OscConfig + 744
        0x080013fe:    2802        .(      CMP      r0,#2
        0x08001400:    f8c68060    ..`.    STR      r8,[r6,#0x60]
        0x08001404:    d004        ..      BEQ      0x8001410 ; HAL_RCC_OscConfig + 624
        0x08001406:    f7fff9e7    ....    BL       HAL_GetTick ; 0x80007d8
        0x0800140a:    4604        .F      MOV      r4,r0
        0x0800140c:    e038        8.      B        0x8001480 ; HAL_RCC_OscConfig + 736
        0x0800140e:    e034        4.      B        0x800147a ; HAL_RCC_OscConfig + 730
        0x08001410:    f7fff9e2    ....    BL       HAL_GetTick ; 0x80007d8
        0x08001414:    4607        .F      MOV      r7,r0
        0x08001416:    e004        ..      B        0x8001422 ; HAL_RCC_OscConfig + 642
        0x08001418:    f7fff9de    ....    BL       HAL_GetTick ; 0x80007d8
        0x0800141c:    1bc0        ..      SUBS     r0,r0,r7
        0x0800141e:    2802        .(      CMP      r0,#2
        0x08001420:    d82b        +.      BHI      0x800147a ; HAL_RCC_OscConfig + 730
        0x08001422:    6828        (h      LDR      r0,[r5,#0]
        0x08001424:    0180        ..      LSLS     r0,r0,#6
        0x08001426:    d4f7        ..      BMI      0x8001418 ; HAL_RCC_OscConfig + 632
        0x08001428:    6a20         j      LDR      r0,[r4,#0x20]
        0x0800142a:    f5b03f80    ...?    CMP      r0,#0x10000
        0x0800142e:    d105        ..      BNE      0x800143c ; HAL_RCC_OscConfig + 668
        0x08001430:    6868        hh      LDR      r0,[r5,#4]
        0x08001432:    68a1        .h      LDR      r1,[r4,#8]
        0x08001434:    f4203000     ..0    BIC      r0,r0,#0x20000
        0x08001438:    4308        .C      ORRS     r0,r0,r1
        0x0800143a:    6068        h`      STR      r0,[r5,#4]
        0x0800143c:    e9d40108    ....    LDRD     r0,r1,[r4,#0x20]
        0x08001440:    4308        .C      ORRS     r0,r0,r1
        0x08001442:    6869        ih      LDR      r1,[r5,#4]
        0x08001444:    f4211174    !.t.    BIC      r1,r1,#0x3d0000
        0x08001448:    4308        .C      ORRS     r0,r0,r1
        0x0800144a:    6068        h`      STR      r0,[r5,#4]
        0x0800144c:    f8c69060    ..`.    STR      r9,[r6,#0x60]
        0x08001450:    f7fff9c2    ....    BL       HAL_GetTick ; 0x80007d8
        0x08001454:    4604        .F      MOV      r4,r0
        0x08001456:    e006        ..      B        0x8001466 ; HAL_RCC_OscConfig + 710
        0x08001458:    e025        %.      B        0x80014a6 ; HAL_RCC_OscConfig + 774
        0x0800145a:    bf00        ..      NOP      
        0x0800145c:    f7fff9bc    ....    BL       HAL_GetTick ; 0x80007d8
        0x08001460:    1b00        ..      SUBS     r0,r0,r4
        0x08001462:    2802        .(      CMP      r0,#2
        0x08001464:    d809        ..      BHI      0x800147a ; HAL_RCC_OscConfig + 730
        0x08001466:    6828        (h      LDR      r0,[r5,#0]
        0x08001468:    0180        ..      LSLS     r0,r0,#6
        0x0800146a:    d5f7        ..      BPL      0x800145c ; HAL_RCC_OscConfig + 700
        0x0800146c:    e01b        ..      B        0x80014a6 ; HAL_RCC_OscConfig + 774
        0x0800146e:    bf00        ..      NOP      
        0x08001470:    f7fff9b2    ....    BL       HAL_GetTick ; 0x80007d8
        0x08001474:    1b00        ..      SUBS     r0,r0,r4
        0x08001476:    2802        .(      CMP      r0,#2
        0x08001478:    d902        ..      BLS      0x8001480 ; HAL_RCC_OscConfig + 736
        0x0800147a:    2003        .       MOVS     r0,#3
        0x0800147c:    e8bd8ff8    ....    POP      {r3-r11,pc}
        0x08001480:    6828        (h      LDR      r0,[r5,#0]
        0x08001482:    0180        ..      LSLS     r0,r0,#6
        0x08001484:    d4f4        ..      BMI      0x8001470 ; HAL_RCC_OscConfig + 720
        0x08001486:    e00e        ..      B        0x80014a6 ; HAL_RCC_OscConfig + 774
        0x08001488:    2801        .(      CMP      r0,#1
        0x0800148a:    d0f7        ..      BEQ      0x800147c ; HAL_RCC_OscConfig + 732
        0x0800148c:    6868        hh      LDR      r0,[r5,#4]
        0x0800148e:    6a22        "j      LDR      r2,[r4,#0x20]
        0x08001490:    f4003180    ...1    AND      r1,r0,#0x10000
        0x08001494:    4291        .B      CMP      r1,r2
        0x08001496:    d104        ..      BNE      0x80014a2 ; HAL_RCC_OscConfig + 770
        0x08001498:    6a61        aj      LDR      r1,[r4,#0x24]
        0x0800149a:    f4001070    ..p.    AND      r0,r0,#0x3c0000
        0x0800149e:    4288        .B      CMP      r0,r1
        0x080014a0:    d001        ..      BEQ      0x80014a6 ; HAL_RCC_OscConfig + 774
        0x080014a2:    2001        .       MOVS     r0,#1
        0x080014a4:    e7ea        ..      B        0x800147c ; HAL_RCC_OscConfig + 732
        0x080014a6:    2000        .       MOVS     r0,#0
        0x080014a8:    e7e8        ..      B        0x800147c ; HAL_RCC_OscConfig + 732
    $d
        0x080014aa:    0000        ..      DCW    0
        0x080014ac:    40021000    ...@    DCD    1073876992
        0x080014b0:    42420000    ..BB    DCD    1111621632
        0x080014b4:    42420480    ..BB    DCD    1111622784
        0x080014b8:    20000010    ...     DCD    536870928
        0x080014bc:    40007000    .p.@    DCD    1073770496
    $t
    i.HAL_SPI_Init
    HAL_SPI_Init
        0x080014c0:    b570        p.      PUSH     {r4-r6,lr}
        0x080014c2:    0004        ..      MOVS     r4,r0
        0x080014c4:    d009        ..      BEQ      0x80014da ; HAL_SPI_Init + 26
        0x080014c6:    6a60        `j      LDR      r0,[r4,#0x24]
        0x080014c8:    2500        .%      MOVS     r5,#0
        0x080014ca:    b140        @.      CBZ      r0,0x80014de ; HAL_SPI_Init + 30
        0x080014cc:    6125        %a      STR      r5,[r4,#0x10]
        0x080014ce:    6165        ea      STR      r5,[r4,#0x14]
        0x080014d0:    62a5        .b      STR      r5,[r4,#0x28]
        0x080014d2:    f8940051    ..Q.    LDRB     r0,[r4,#0x51]
        0x080014d6:    b140        @.      CBZ      r0,0x80014ea ; HAL_SPI_Init + 42
        0x080014d8:    e00c        ..      B        0x80014f4 ; HAL_SPI_Init + 52
        0x080014da:    2001        .       MOVS     r0,#1
        0x080014dc:    bd70        p.      POP      {r4-r6,pc}
        0x080014de:    6860        `h      LDR      r0,[r4,#4]
        0x080014e0:    f5b07f82    ....    CMP      r0,#0x104
        0x080014e4:    d0f4        ..      BEQ      0x80014d0 ; HAL_SPI_Init + 16
        0x080014e6:    61e5        .a      STR      r5,[r4,#0x1c]
        0x080014e8:    e7f2        ..      B        0x80014d0 ; HAL_SPI_Init + 16
        0x080014ea:    f8845050    ..PP    STRB     r5,[r4,#0x50]
        0x080014ee:    4620         F      MOV      r0,r4
        0x080014f0:    f000f840    ..@.    BL       HAL_SPI_MspInit ; 0x8001574
        0x080014f4:    2002        .       MOVS     r0,#2
        0x080014f6:    f8840051    ..Q.    STRB     r0,[r4,#0x51]
        0x080014fa:    6820         h      LDR      r0,[r4,#0]
        0x080014fc:    6801        .h      LDR      r1,[r0,#0]
        0x080014fe:    f0210140    !.@.    BIC      r1,r1,#0x40
        0x08001502:    6001        .`      STR      r1,[r0,#0]
        0x08001504:    88a0        ..      LDRH     r0,[r4,#4]
        0x08001506:    8921        !.      LDRH     r1,[r4,#8]
        0x08001508:    f4007082    ...p    AND      r0,r0,#0x104
        0x0800150c:    f4014104    ...A    AND      r1,r1,#0x8400
        0x08001510:    4308        .C      ORRS     r0,r0,r1
        0x08001512:    89a1        ..      LDRH     r1,[r4,#0xc]
        0x08001514:    f4016100    ...a    AND      r1,r1,#0x800
        0x08001518:    4308        .C      ORRS     r0,r0,r1
        0x0800151a:    7c21        !|      LDRB     r1,[r4,#0x10]
        0x0800151c:    f0010102    ....    AND      r1,r1,#2
        0x08001520:    4308        .C      ORRS     r0,r0,r1
        0x08001522:    7d21        !}      LDRB     r1,[r4,#0x14]
        0x08001524:    f0010101    ....    AND      r1,r1,#1
        0x08001528:    4308        .C      ORRS     r0,r0,r1
        0x0800152a:    8b21        !.      LDRH     r1,[r4,#0x18]
        0x0800152c:    f4017100    ...q    AND      r1,r1,#0x200
        0x08001530:    4308        .C      ORRS     r0,r0,r1
        0x08001532:    7f21        !.      LDRB     r1,[r4,#0x1c]
        0x08001534:    f0010138    ..8.    AND      r1,r1,#0x38
        0x08001538:    4308        .C      ORRS     r0,r0,r1
        0x0800153a:    f8941020    .. .    LDRB     r1,[r4,#0x20]
        0x0800153e:    f0010180    ....    AND      r1,r1,#0x80
        0x08001542:    4308        .C      ORRS     r0,r0,r1
        0x08001544:    8d21        !.      LDRH     r1,[r4,#0x28]
        0x08001546:    f4015100    ...Q    AND      r1,r1,#0x2000
        0x0800154a:    4308        .C      ORRS     r0,r0,r1
        0x0800154c:    6821        !h      LDR      r1,[r4,#0]
        0x0800154e:    6008        .`      STR      r0,[r1,#0]
        0x08001550:    69a0        .i      LDR      r0,[r4,#0x18]
        0x08001552:    2104        .!      MOVS     r1,#4
        0x08001554:    ea014010    ...@    AND      r0,r1,r0,LSR #16
        0x08001558:    6821        !h      LDR      r1,[r4,#0]
        0x0800155a:    6048        H`      STR      r0,[r1,#4]
        0x0800155c:    6820         h      LDR      r0,[r4,#0]
        0x0800155e:    69c1        .i      LDR      r1,[r0,#0x1c]
        0x08001560:    f4216100    !..a    BIC      r1,r1,#0x800
        0x08001564:    61c1        .a      STR      r1,[r0,#0x1c]
        0x08001566:    6565        ee      STR      r5,[r4,#0x54]
        0x08001568:    2001        .       MOVS     r0,#1
        0x0800156a:    f8840051    ..Q.    STRB     r0,[r4,#0x51]
        0x0800156e:    2000        .       MOVS     r0,#0
        0x08001570:    bd70        p.      POP      {r4-r6,pc}
        0x08001572:    0000        ..      MOVS     r0,r0
    i.HAL_SPI_MspInit
    HAL_SPI_MspInit
        0x08001574:    b530        0.      PUSH     {r4,r5,lr}
        0x08001576:    b085        ..      SUB      sp,sp,#0x14
        0x08001578:    2400        .$      MOVS     r4,#0
        0x0800157a:    9400        ..      STR      r4,[sp,#0]
        0x0800157c:    9401        ..      STR      r4,[sp,#4]
        0x0800157e:    9402        ..      STR      r4,[sp,#8]
        0x08001580:    9403        ..      STR      r4,[sp,#0xc]
        0x08001582:    6800        .h      LDR      r0,[r0,#0]
        0x08001584:    4914        .I      LDR      r1,[pc,#80] ; [0x80015d8] = 0x40013000
        0x08001586:    4288        .B      CMP      r0,r1
        0x08001588:    d123        #.      BNE      0x80015d2 ; HAL_SPI_MspInit + 94
        0x0800158a:    4814        .H      LDR      r0,[pc,#80] ; [0x80015dc] = 0x40021000
        0x0800158c:    6981        .i      LDR      r1,[r0,#0x18]
        0x0800158e:    f4415180    A..Q    ORR      r1,r1,#0x1000
        0x08001592:    6181        .a      STR      r1,[r0,#0x18]
        0x08001594:    6981        .i      LDR      r1,[r0,#0x18]
        0x08001596:    f4015180    ...Q    AND      r1,r1,#0x1000
        0x0800159a:    9104        ..      STR      r1,[sp,#0x10]
        0x0800159c:    6981        .i      LDR      r1,[r0,#0x18]
        0x0800159e:    f0410104    A...    ORR      r1,r1,#4
        0x080015a2:    6181        .a      STR      r1,[r0,#0x18]
        0x080015a4:    6980        .i      LDR      r0,[r0,#0x18]
        0x080015a6:    4d0e        .M      LDR      r5,[pc,#56] ; [0x80015e0] = 0x40010800
        0x080015a8:    f0000004    ....    AND      r0,r0,#4
        0x080015ac:    9004        ..      STR      r0,[sp,#0x10]
        0x080015ae:    20a0        .       MOVS     r0,#0xa0
        0x080015b0:    9000        ..      STR      r0,[sp,#0]
        0x080015b2:    2002        .       MOVS     r0,#2
        0x080015b4:    9001        ..      STR      r0,[sp,#4]
        0x080015b6:    2003        .       MOVS     r0,#3
        0x080015b8:    9003        ..      STR      r0,[sp,#0xc]
        0x080015ba:    4669        iF      MOV      r1,sp
        0x080015bc:    4628        (F      MOV      r0,r5
        0x080015be:    f7fff811    ....    BL       HAL_GPIO_Init ; 0x80005e4
        0x080015c2:    2040        @       MOVS     r0,#0x40
        0x080015c4:    e9cd0400    ....    STRD     r0,r4,[sp,#0]
        0x080015c8:    4669        iF      MOV      r1,sp
        0x080015ca:    4628        (F      MOV      r0,r5
        0x080015cc:    9402        ..      STR      r4,[sp,#8]
        0x080015ce:    f7fff809    ....    BL       HAL_GPIO_Init ; 0x80005e4
        0x080015d2:    b005        ..      ADD      sp,sp,#0x14
        0x080015d4:    bd30        0.      POP      {r4,r5,pc}
    $d
        0x080015d6:    0000        ..      DCW    0
        0x080015d8:    40013000    .0.@    DCD    1073819648
        0x080015dc:    40021000    ...@    DCD    1073876992
        0x080015e0:    40010800    ...@    DCD    1073809408
    $t
    i.HAL_TIMEx_BreakCallback
    HAL_TIMEx_BreakCallback
        0x080015e4:    4770        pG      BX       lr
    i.HAL_TIMEx_CommutCallback
    HAL_TIMEx_CommutCallback
        0x080015e6:    4770        pG      BX       lr
    i.HAL_TIMEx_ConfigBreakDeadTime
    HAL_TIMEx_ConfigBreakDeadTime
        0x080015e8:    b510        ..      PUSH     {r4,lr}
        0x080015ea:    f890203c    ..<     LDRB     r2,[r0,#0x3c]
        0x080015ee:    2a01        .*      CMP      r2,#1
        0x080015f0:    d022        ".      BEQ      0x8001638 ; HAL_TIMEx_ConfigBreakDeadTime + 80
        0x080015f2:    2201        ."      MOVS     r2,#1
        0x080015f4:    f880203c    ..<     STRB     r2,[r0,#0x3c]
        0x080015f8:    68ca        .h      LDR      r2,[r1,#0xc]
        0x080015fa:    688c        .h      LDR      r4,[r1,#8]
        0x080015fc:    f4227240    ".@r    BIC      r2,r2,#0x300
        0x08001600:    4322        "C      ORRS     r2,r2,r4
        0x08001602:    684c        Lh      LDR      r4,[r1,#4]
        0x08001604:    f4226280    "..b    BIC      r2,r2,#0x400
        0x08001608:    4322        "C      ORRS     r2,r2,r4
        0x0800160a:    680c        .h      LDR      r4,[r1,#0]
        0x0800160c:    f4226200    "..b    BIC      r2,r2,#0x800
        0x08001610:    4322        "C      ORRS     r2,r2,r4
        0x08001612:    690c        .i      LDR      r4,[r1,#0x10]
        0x08001614:    f4225280    "..R    BIC      r2,r2,#0x1000
        0x08001618:    4322        "C      ORRS     r2,r2,r4
        0x0800161a:    694c        Li      LDR      r4,[r1,#0x14]
        0x0800161c:    f4225200    "..R    BIC      r2,r2,#0x2000
        0x08001620:    4322        "C      ORRS     r2,r2,r4
        0x08001622:    69c9        .i      LDR      r1,[r1,#0x1c]
        0x08001624:    2300        .#      MOVS     r3,#0
        0x08001626:    f4224280    "..B    BIC      r2,r2,#0x4000
        0x0800162a:    430a        .C      ORRS     r2,r2,r1
        0x0800162c:    6801        .h      LDR      r1,[r0,#0]
        0x0800162e:    644a        Jd      STR      r2,[r1,#0x44]
        0x08001630:    f880303c    ..<0    STRB     r3,[r0,#0x3c]
        0x08001634:    2000        .       MOVS     r0,#0
        0x08001636:    bd10        ..      POP      {r4,pc}
        0x08001638:    2002        .       MOVS     r0,#2
        0x0800163a:    bd10        ..      POP      {r4,pc}
    i.HAL_TIMEx_MasterConfigSynchronization
    HAL_TIMEx_MasterConfigSynchronization
        0x0800163c:    b570        p.      PUSH     {r4-r6,lr}
        0x0800163e:    f890203c    ..<     LDRB     r2,[r0,#0x3c]
        0x08001642:    2a01        .*      CMP      r2,#1
        0x08001644:    d026        &.      BEQ      0x8001694 ; HAL_TIMEx_MasterConfigSynchronization + 88
        0x08001646:    2401        .$      MOVS     r4,#1
        0x08001648:    f880403c    ..<@    STRB     r4,[r0,#0x3c]
        0x0800164c:    2202        ."      MOVS     r2,#2
        0x0800164e:    f880203d    ..=     STRB     r2,[r0,#0x3d]
        0x08001652:    6803        .h      LDR      r3,[r0,#0]
        0x08001654:    685a        Zh      LDR      r2,[r3,#4]
        0x08001656:    689d        .h      LDR      r5,[r3,#8]
        0x08001658:    f0220670    ".p.    BIC      r6,r2,#0x70
        0x0800165c:    680a        .h      LDR      r2,[r1,#0]
        0x0800165e:    4332        2C      ORRS     r2,r2,r6
        0x08001660:    605a        Z`      STR      r2,[r3,#4]
        0x08001662:    4b0d        .K      LDR      r3,[pc,#52] ; [0x8001698] = 0x40012c00
        0x08001664:    6802        .h      LDR      r2,[r0,#0]
        0x08001666:    429a        .B      CMP      r2,r3
        0x08001668:    d008        ..      BEQ      0x800167c ; HAL_TIMEx_MasterConfigSynchronization + 64
        0x0800166a:    f1b24f80    ...O    CMP      r2,#0x40000000
        0x0800166e:    d005        ..      BEQ      0x800167c ; HAL_TIMEx_MasterConfigSynchronization + 64
        0x08001670:    4b0a        .K      LDR      r3,[pc,#40] ; [0x800169c] = 0x40000400
        0x08001672:    429a        .B      CMP      r2,r3
        0x08001674:    d002        ..      BEQ      0x800167c ; HAL_TIMEx_MasterConfigSynchronization + 64
        0x08001676:    4b0a        .K      LDR      r3,[pc,#40] ; [0x80016a0] = 0x40000800
        0x08001678:    429a        .B      CMP      r2,r3
        0x0800167a:    d104        ..      BNE      0x8001686 ; HAL_TIMEx_MasterConfigSynchronization + 74
        0x0800167c:    6849        Ih      LDR      r1,[r1,#4]
        0x0800167e:    f0250380    %...    BIC      r3,r5,#0x80
        0x08001682:    4319        .C      ORRS     r1,r1,r3
        0x08001684:    6091        .`      STR      r1,[r2,#8]
        0x08001686:    f880403d    ..=@    STRB     r4,[r0,#0x3d]
        0x0800168a:    2100        .!      MOVS     r1,#0
        0x0800168c:    f880103c    ..<.    STRB     r1,[r0,#0x3c]
        0x08001690:    4608        .F      MOV      r0,r1
        0x08001692:    bd70        p.      POP      {r4-r6,pc}
        0x08001694:    2002        .       MOVS     r0,#2
        0x08001696:    bd70        p.      POP      {r4-r6,pc}
    $d
        0x08001698:    40012c00    .,.@    DCD    1073818624
        0x0800169c:    40000400    ...@    DCD    1073742848
        0x080016a0:    40000800    ...@    DCD    1073743872
    $t
    i.HAL_TIM_Base_Init
    HAL_TIM_Base_Init
        0x080016a4:    b510        ..      PUSH     {r4,lr}
        0x080016a6:    0004        ..      MOVS     r4,r0
        0x080016a8:    d003        ..      BEQ      0x80016b2 ; HAL_TIM_Base_Init + 14
        0x080016aa:    f894003d    ..=.    LDRB     r0,[r4,#0x3d]
        0x080016ae:    b110        ..      CBZ      r0,0x80016b6 ; HAL_TIM_Base_Init + 18
        0x080016b0:    e007        ..      B        0x80016c2 ; HAL_TIM_Base_Init + 30
        0x080016b2:    2001        .       MOVS     r0,#1
        0x080016b4:    bd10        ..      POP      {r4,pc}
        0x080016b6:    2000        .       MOVS     r0,#0
        0x080016b8:    f884003c    ..<.    STRB     r0,[r4,#0x3c]
        0x080016bc:    4620         F      MOV      r0,r4
        0x080016be:    f000f81f    ....    BL       HAL_TIM_Base_MspInit ; 0x8001700
        0x080016c2:    2002        .       MOVS     r0,#2
        0x080016c4:    f884003d    ..=.    STRB     r0,[r4,#0x3d]
        0x080016c8:    1d21        !.      ADDS     r1,r4,#4
        0x080016ca:    6820         h      LDR      r0,[r4,#0]
        0x080016cc:    f001fa92    ....    BL       TIM_Base_SetConfig ; 0x8002bf4
        0x080016d0:    2001        .       MOVS     r0,#1
        0x080016d2:    f8840046    ..F.    STRB     r0,[r4,#0x46]
        0x080016d6:    f884003e    ..>.    STRB     r0,[r4,#0x3e]
        0x080016da:    f884003f    ..?.    STRB     r0,[r4,#0x3f]
        0x080016de:    f8840040    ..@.    STRB     r0,[r4,#0x40]
        0x080016e2:    f8840041    ..A.    STRB     r0,[r4,#0x41]
        0x080016e6:    f8840042    ..B.    STRB     r0,[r4,#0x42]
        0x080016ea:    f8840043    ..C.    STRB     r0,[r4,#0x43]
        0x080016ee:    f8840044    ..D.    STRB     r0,[r4,#0x44]
        0x080016f2:    f8840045    ..E.    STRB     r0,[r4,#0x45]
        0x080016f6:    f884003d    ..=.    STRB     r0,[r4,#0x3d]
        0x080016fa:    2000        .       MOVS     r0,#0
        0x080016fc:    bd10        ..      POP      {r4,pc}
        0x080016fe:    0000        ..      MOVS     r0,r0
    i.HAL_TIM_Base_MspInit
    HAL_TIM_Base_MspInit
        0x08001700:    b508        ..      PUSH     {r3,lr}
        0x08001702:    4a0c        .J      LDR      r2,[pc,#48] ; [0x8001734] = 0x40012c00
        0x08001704:    6801        .h      LDR      r1,[r0,#0]
        0x08001706:    480c        .H      LDR      r0,[pc,#48] ; [0x8001738] = 0x40021000
        0x08001708:    4291        .B      CMP      r1,r2
        0x0800170a:    d107        ..      BNE      0x800171c ; HAL_TIM_Base_MspInit + 28
        0x0800170c:    6981        .i      LDR      r1,[r0,#0x18]
        0x0800170e:    f4416100    A..a    ORR      r1,r1,#0x800
        0x08001712:    6181        .a      STR      r1,[r0,#0x18]
        0x08001714:    6980        .i      LDR      r0,[r0,#0x18]
        0x08001716:    f4006000    ...`    AND      r0,r0,#0x800
        0x0800171a:    e009        ..      B        0x8001730 ; HAL_TIM_Base_MspInit + 48
        0x0800171c:    f1b14f80    ...O    CMP      r1,#0x40000000
        0x08001720:    d107        ..      BNE      0x8001732 ; HAL_TIM_Base_MspInit + 50
        0x08001722:    69c1        .i      LDR      r1,[r0,#0x1c]
        0x08001724:    f0410101    A...    ORR      r1,r1,#1
        0x08001728:    61c1        .a      STR      r1,[r0,#0x1c]
        0x0800172a:    69c0        .i      LDR      r0,[r0,#0x1c]
        0x0800172c:    f0000001    ....    AND      r0,r0,#1
        0x08001730:    9000        ..      STR      r0,[sp,#0]
        0x08001732:    bd08        ..      POP      {r3,pc}
    $d
        0x08001734:    40012c00    .,.@    DCD    1073818624
        0x08001738:    40021000    ...@    DCD    1073876992
    $t
    i.HAL_TIM_Base_Start_IT
    HAL_TIM_Base_Start_IT
        0x0800173c:    f890103d    ..=.    LDRB     r1,[r0,#0x3d]
        0x08001740:    2901        .)      CMP      r1,#1
        0x08001742:    d001        ..      BEQ      0x8001748 ; HAL_TIM_Base_Start_IT + 12
        0x08001744:    2001        .       MOVS     r0,#1
        0x08001746:    4770        pG      BX       lr
        0x08001748:    2102        .!      MOVS     r1,#2
        0x0800174a:    f880103d    ..=.    STRB     r1,[r0,#0x3d]
        0x0800174e:    6801        .h      LDR      r1,[r0,#0]
        0x08001750:    68ca        .h      LDR      r2,[r1,#0xc]
        0x08001752:    f0420201    B...    ORR      r2,r2,#1
        0x08001756:    60ca        .`      STR      r2,[r1,#0xc]
        0x08001758:    6800        .h      LDR      r0,[r0,#0]
        0x0800175a:    490b        .I      LDR      r1,[pc,#44] ; [0x8001788] = 0x40012c00
        0x0800175c:    4288        .B      CMP      r0,r1
        0x0800175e:    d008        ..      BEQ      0x8001772 ; HAL_TIM_Base_Start_IT + 54
        0x08001760:    f1b04f80    ...O    CMP      r0,#0x40000000
        0x08001764:    d005        ..      BEQ      0x8001772 ; HAL_TIM_Base_Start_IT + 54
        0x08001766:    4909        .I      LDR      r1,[pc,#36] ; [0x800178c] = 0x40000400
        0x08001768:    4288        .B      CMP      r0,r1
        0x0800176a:    d002        ..      BEQ      0x8001772 ; HAL_TIM_Base_Start_IT + 54
        0x0800176c:    4908        .I      LDR      r1,[pc,#32] ; [0x8001790] = 0x40000800
        0x0800176e:    4288        .B      CMP      r0,r1
        0x08001770:    d104        ..      BNE      0x800177c ; HAL_TIM_Base_Start_IT + 64
        0x08001772:    6881        .h      LDR      r1,[r0,#8]
        0x08001774:    f0010107    ....    AND      r1,r1,#7
        0x08001778:    2906        .)      CMP      r1,#6
        0x0800177a:    d003        ..      BEQ      0x8001784 ; HAL_TIM_Base_Start_IT + 72
        0x0800177c:    6801        .h      LDR      r1,[r0,#0]
        0x0800177e:    f0410101    A...    ORR      r1,r1,#1
        0x08001782:    6001        .`      STR      r1,[r0,#0]
        0x08001784:    2000        .       MOVS     r0,#0
        0x08001786:    4770        pG      BX       lr
    $d
        0x08001788:    40012c00    .,.@    DCD    1073818624
        0x0800178c:    40000400    ...@    DCD    1073742848
        0x08001790:    40000800    ...@    DCD    1073743872
    $t
    i.HAL_TIM_ConfigClockSource
    HAL_TIM_ConfigClockSource
        0x08001794:    b570        p.      PUSH     {r4-r6,lr}
        0x08001796:    4604        .F      MOV      r4,r0
        0x08001798:    f890003c    ..<.    LDRB     r0,[r0,#0x3c]
        0x0800179c:    2500        .%      MOVS     r5,#0
        0x0800179e:    2801        .(      CMP      r0,#1
        0x080017a0:    d017        ..      BEQ      0x80017d2 ; HAL_TIM_ConfigClockSource + 62
        0x080017a2:    2601        .&      MOVS     r6,#1
        0x080017a4:    f884603c    ..<`    STRB     r6,[r4,#0x3c]
        0x080017a8:    2002        .       MOVS     r0,#2
        0x080017aa:    f884003d    ..=.    STRB     r0,[r4,#0x3d]
        0x080017ae:    6820         h      LDR      r0,[r4,#0]
        0x080017b0:    6882        .h      LDR      r2,[r0,#8]
        0x080017b2:    f0220277    ".w.    BIC      r2,r2,#0x77
        0x080017b6:    f422427f    "..B    BIC      r2,r2,#0xff00
        0x080017ba:    6082        .`      STR      r2,[r0,#8]
        0x080017bc:    6808        .h      LDR      r0,[r1,#0]
        0x080017be:    2850        P(      CMP      r0,#0x50
        0x080017c0:    d038        8.      BEQ      0x8001834 ; HAL_TIM_ConfigClockSource + 160
        0x080017c2:    dc0d        ..      BGT      0x80017e0 ; HAL_TIM_ConfigClockSource + 76
        0x080017c4:    2820         (      CMP      r0,#0x20
        0x080017c6:    d04f        O.      BEQ      0x8001868 ; HAL_TIM_ConfigClockSource + 212
        0x080017c8:    dc05        ..      BGT      0x80017d6 ; HAL_TIM_ConfigClockSource + 66
        0x080017ca:    b390        ..      CBZ      r0,0x8001832 ; HAL_TIM_ConfigClockSource + 158
        0x080017cc:    2810        .(      CMP      r0,#0x10
        0x080017ce:    d111        ..      BNE      0x80017f4 ; HAL_TIM_ConfigClockSource + 96
        0x080017d0:    e04a        J.      B        0x8001868 ; HAL_TIM_ConfigClockSource + 212
        0x080017d2:    2002        .       MOVS     r0,#2
        0x080017d4:    bd70        p.      POP      {r4-r6,pc}
        0x080017d6:    2830        0(      CMP      r0,#0x30
        0x080017d8:    d046        F.      BEQ      0x8001868 ; HAL_TIM_ConfigClockSource + 212
        0x080017da:    2840        @(      CMP      r0,#0x40
        0x080017dc:    d10a        ..      BNE      0x80017f4 ; HAL_TIM_ConfigClockSource + 96
        0x080017de:    e03b        ;.      B        0x8001858 ; HAL_TIM_ConfigClockSource + 196
        0x080017e0:    2860        `(      CMP      r0,#0x60
        0x080017e2:    d02f        /.      BEQ      0x8001844 ; HAL_TIM_ConfigClockSource + 176
        0x080017e4:    2870        p(      CMP      r0,#0x70
        0x080017e6:    d00d        ..      BEQ      0x8001804 ; HAL_TIM_ConfigClockSource + 112
        0x080017e8:    f5b05f80    ..._    CMP      r0,#0x1000
        0x080017ec:    d003        ..      BEQ      0x80017f6 ; HAL_TIM_ConfigClockSource + 98
        0x080017ee:    f5b05f00    ..._    CMP      r0,#0x2000
        0x080017f2:    d012        ..      BEQ      0x800181a ; HAL_TIM_ConfigClockSource + 134
        0x080017f4:    2501        .%      MOVS     r5,#1
        0x080017f6:    f884603d    ..=`    STRB     r6,[r4,#0x3d]
        0x080017fa:    2000        .       MOVS     r0,#0
        0x080017fc:    f884003c    ..<.    STRB     r0,[r4,#0x3c]
        0x08001800:    4628        (F      MOV      r0,r5
        0x08001802:    bd70        p.      POP      {r4-r6,pc}
        0x08001804:    68cb        .h      LDR      r3,[r1,#0xc]
        0x08001806:    e9d12101    ...!    LDRD     r2,r1,[r1,#4]
        0x0800180a:    6820         h      LDR      r0,[r4,#0]
        0x0800180c:    f001fa28    ..(.    BL       TIM_ETR_SetConfig ; 0x8002c60
        0x08001810:    6820         h      LDR      r0,[r4,#0]
        0x08001812:    6881        .h      LDR      r1,[r0,#8]
        0x08001814:    f0410177    A.w.    ORR      r1,r1,#0x77
        0x08001818:    e009        ..      B        0x800182e ; HAL_TIM_ConfigClockSource + 154
        0x0800181a:    68cb        .h      LDR      r3,[r1,#0xc]
        0x0800181c:    e9d12101    ...!    LDRD     r2,r1,[r1,#4]
        0x08001820:    6820         h      LDR      r0,[r4,#0]
        0x08001822:    f001fa1d    ....    BL       TIM_ETR_SetConfig ; 0x8002c60
        0x08001826:    6820         h      LDR      r0,[r4,#0]
        0x08001828:    6881        .h      LDR      r1,[r0,#8]
        0x0800182a:    f4414180    A..A    ORR      r1,r1,#0x4000
        0x0800182e:    6081        .`      STR      r1,[r0,#8]
        0x08001830:    e7e1        ..      B        0x80017f6 ; HAL_TIM_ConfigClockSource + 98
        0x08001832:    e019        ..      B        0x8001868 ; HAL_TIM_ConfigClockSource + 212
        0x08001834:    68ca        .h      LDR      r2,[r1,#0xc]
        0x08001836:    6849        Ih      LDR      r1,[r1,#4]
        0x08001838:    6820         h      LDR      r0,[r4,#0]
        0x0800183a:    f001fac5    ....    BL       TIM_TI1_ConfigInputStage ; 0x8002dc8
        0x0800183e:    2150        P!      MOVS     r1,#0x50
        0x08001840:    6820         h      LDR      r0,[r4,#0]
        0x08001842:    e006        ..      B        0x8001852 ; HAL_TIM_ConfigClockSource + 190
        0x08001844:    68ca        .h      LDR      r2,[r1,#0xc]
        0x08001846:    6849        Ih      LDR      r1,[r1,#4]
        0x08001848:    6820         h      LDR      r0,[r4,#0]
        0x0800184a:    f001face    ....    BL       TIM_TI2_ConfigInputStage ; 0x8002dea
        0x0800184e:    2160        `!      MOVS     r1,#0x60
        0x08001850:    6820         h      LDR      r0,[r4,#0]
        0x08001852:    f001fa0f    ....    BL       TIM_ITRx_SetConfig ; 0x8002c74
        0x08001856:    e7ce        ..      B        0x80017f6 ; HAL_TIM_ConfigClockSource + 98
        0x08001858:    68ca        .h      LDR      r2,[r1,#0xc]
        0x0800185a:    6849        Ih      LDR      r1,[r1,#4]
        0x0800185c:    6820         h      LDR      r0,[r4,#0]
        0x0800185e:    f001fab3    ....    BL       TIM_TI1_ConfigInputStage ; 0x8002dc8
        0x08001862:    2140        @!      MOVS     r1,#0x40
        0x08001864:    6820         h      LDR      r0,[r4,#0]
        0x08001866:    e7f4        ..      B        0x8001852 ; HAL_TIM_ConfigClockSource + 190
        0x08001868:    6822        "h      LDR      r2,[r4,#0]
        0x0800186a:    4601        .F      MOV      r1,r0
        0x0800186c:    4610        .F      MOV      r0,r2
        0x0800186e:    e7f0        ..      B        0x8001852 ; HAL_TIM_ConfigClockSource + 190
    i.HAL_TIM_IC_CaptureCallback
    HAL_TIM_IC_CaptureCallback
        0x08001870:    4770        pG      BX       lr
    i.HAL_TIM_IRQHandler
    HAL_TIM_IRQHandler
        0x08001872:    b570        p.      PUSH     {r4-r6,lr}
        0x08001874:    4604        .F      MOV      r4,r0
        0x08001876:    6800        .h      LDR      r0,[r0,#0]
        0x08001878:    6901        .i      LDR      r1,[r0,#0x10]
        0x0800187a:    f04f0500    O...    MOV      r5,#0
        0x0800187e:    43c9        .C      MVNS     r1,r1
        0x08001880:    0789        ..      LSLS     r1,r1,#30
        0x08001882:    d415        ..      BMI      0x80018b0 ; HAL_TIM_IRQHandler + 62
        0x08001884:    68c1        .h      LDR      r1,[r0,#0xc]
        0x08001886:    43c9        .C      MVNS     r1,r1
        0x08001888:    0789        ..      LSLS     r1,r1,#30
        0x0800188a:    d411        ..      BMI      0x80018b0 ; HAL_TIM_IRQHandler + 62
        0x0800188c:    1ee9        ..      SUBS     r1,r5,#3
        0x0800188e:    6101        .a      STR      r1,[r0,#0x10]
        0x08001890:    2001        .       MOVS     r0,#1
        0x08001892:    7720         w      STRB     r0,[r4,#0x1c]
        0x08001894:    6820         h      LDR      r0,[r4,#0]
        0x08001896:    6980        .i      LDR      r0,[r0,#0x18]
        0x08001898:    0780        ..      LSLS     r0,r0,#30
        0x0800189a:    4620         F      MOV      r0,r4
        0x0800189c:    d002        ..      BEQ      0x80018a4 ; HAL_TIM_IRQHandler + 50
        0x0800189e:    f7ffffe7    ....    BL       HAL_TIM_IC_CaptureCallback ; 0x8001870
        0x080018a2:    e004        ..      B        0x80018ae ; HAL_TIM_IRQHandler + 60
        0x080018a4:    f000f90e    ....    BL       HAL_TIM_OC_DelayElapsedCallback ; 0x8001ac4
        0x080018a8:    4620         F      MOV      r0,r4
        0x080018aa:    f000f9b3    ....    BL       HAL_TIM_PWM_PulseFinishedCallback ; 0x8001c14
        0x080018ae:    7725        %w      STRB     r5,[r4,#0x1c]
        0x080018b0:    6820         h      LDR      r0,[r4,#0]
        0x080018b2:    6901        .i      LDR      r1,[r0,#0x10]
        0x080018b4:    43c9        .C      MVNS     r1,r1
        0x080018b6:    0749        I.      LSLS     r1,r1,#29
        0x080018b8:    d417        ..      BMI      0x80018ea ; HAL_TIM_IRQHandler + 120
        0x080018ba:    68c1        .h      LDR      r1,[r0,#0xc]
        0x080018bc:    43c9        .C      MVNS     r1,r1
        0x080018be:    0749        I.      LSLS     r1,r1,#29
        0x080018c0:    d413        ..      BMI      0x80018ea ; HAL_TIM_IRQHandler + 120
        0x080018c2:    f06f0104    o...    MVN      r1,#4
        0x080018c6:    6101        .a      STR      r1,[r0,#0x10]
        0x080018c8:    2002        .       MOVS     r0,#2
        0x080018ca:    7720         w      STRB     r0,[r4,#0x1c]
        0x080018cc:    6820         h      LDR      r0,[r4,#0]
        0x080018ce:    6980        .i      LDR      r0,[r0,#0x18]
        0x080018d0:    f4107f40    ..@.    TST      r0,#0x300
        0x080018d4:    4620         F      MOV      r0,r4
        0x080018d6:    d002        ..      BEQ      0x80018de ; HAL_TIM_IRQHandler + 108
        0x080018d8:    f7ffffca    ....    BL       HAL_TIM_IC_CaptureCallback ; 0x8001870
        0x080018dc:    e004        ..      B        0x80018e8 ; HAL_TIM_IRQHandler + 118
        0x080018de:    f000f8f1    ....    BL       HAL_TIM_OC_DelayElapsedCallback ; 0x8001ac4
        0x080018e2:    4620         F      MOV      r0,r4
        0x080018e4:    f000f996    ....    BL       HAL_TIM_PWM_PulseFinishedCallback ; 0x8001c14
        0x080018e8:    7725        %w      STRB     r5,[r4,#0x1c]
        0x080018ea:    6820         h      LDR      r0,[r4,#0]
        0x080018ec:    6901        .i      LDR      r1,[r0,#0x10]
        0x080018ee:    43c9        .C      MVNS     r1,r1
        0x080018f0:    0709        ..      LSLS     r1,r1,#28
        0x080018f2:    d416        ..      BMI      0x8001922 ; HAL_TIM_IRQHandler + 176
        0x080018f4:    68c1        .h      LDR      r1,[r0,#0xc]
        0x080018f6:    43c9        .C      MVNS     r1,r1
        0x080018f8:    0709        ..      LSLS     r1,r1,#28
        0x080018fa:    d412        ..      BMI      0x8001922 ; HAL_TIM_IRQHandler + 176
        0x080018fc:    f06f0108    o...    MVN      r1,#8
        0x08001900:    6101        .a      STR      r1,[r0,#0x10]
        0x08001902:    2004        .       MOVS     r0,#4
        0x08001904:    7720         w      STRB     r0,[r4,#0x1c]
        0x08001906:    6820         h      LDR      r0,[r4,#0]
        0x08001908:    69c0        .i      LDR      r0,[r0,#0x1c]
        0x0800190a:    0780        ..      LSLS     r0,r0,#30
        0x0800190c:    4620         F      MOV      r0,r4
        0x0800190e:    d002        ..      BEQ      0x8001916 ; HAL_TIM_IRQHandler + 164
        0x08001910:    f7ffffae    ....    BL       HAL_TIM_IC_CaptureCallback ; 0x8001870
        0x08001914:    e004        ..      B        0x8001920 ; HAL_TIM_IRQHandler + 174
        0x08001916:    f000f8d5    ....    BL       HAL_TIM_OC_DelayElapsedCallback ; 0x8001ac4
        0x0800191a:    4620         F      MOV      r0,r4
        0x0800191c:    f000f97a    ..z.    BL       HAL_TIM_PWM_PulseFinishedCallback ; 0x8001c14
        0x08001920:    7725        %w      STRB     r5,[r4,#0x1c]
        0x08001922:    6820         h      LDR      r0,[r4,#0]
        0x08001924:    6901        .i      LDR      r1,[r0,#0x10]
        0x08001926:    43c9        .C      MVNS     r1,r1
        0x08001928:    06c9        ..      LSLS     r1,r1,#27
        0x0800192a:    d417        ..      BMI      0x800195c ; HAL_TIM_IRQHandler + 234
        0x0800192c:    68c1        .h      LDR      r1,[r0,#0xc]
        0x0800192e:    43c9        .C      MVNS     r1,r1
        0x08001930:    06c9        ..      LSLS     r1,r1,#27
        0x08001932:    d413        ..      BMI      0x800195c ; HAL_TIM_IRQHandler + 234
        0x08001934:    f06f0110    o...    MVN      r1,#0x10
        0x08001938:    6101        .a      STR      r1,[r0,#0x10]
        0x0800193a:    2008        .       MOVS     r0,#8
        0x0800193c:    7720         w      STRB     r0,[r4,#0x1c]
        0x0800193e:    6820         h      LDR      r0,[r4,#0]
        0x08001940:    69c0        .i      LDR      r0,[r0,#0x1c]
        0x08001942:    f4107f40    ..@.    TST      r0,#0x300
        0x08001946:    4620         F      MOV      r0,r4
        0x08001948:    d002        ..      BEQ      0x8001950 ; HAL_TIM_IRQHandler + 222
        0x0800194a:    f7ffff91    ....    BL       HAL_TIM_IC_CaptureCallback ; 0x8001870
        0x0800194e:    e004        ..      B        0x800195a ; HAL_TIM_IRQHandler + 232
        0x08001950:    f000f8b8    ....    BL       HAL_TIM_OC_DelayElapsedCallback ; 0x8001ac4
        0x08001954:    4620         F      MOV      r0,r4
        0x08001956:    f000f95d    ..].    BL       HAL_TIM_PWM_PulseFinishedCallback ; 0x8001c14
        0x0800195a:    7725        %w      STRB     r5,[r4,#0x1c]
        0x0800195c:    6820         h      LDR      r0,[r4,#0]
        0x0800195e:    6901        .i      LDR      r1,[r0,#0x10]
        0x08001960:    43c9        .C      MVNS     r1,r1
        0x08001962:    07c9        ..      LSLS     r1,r1,#31
        0x08001964:    d108        ..      BNE      0x8001978 ; HAL_TIM_IRQHandler + 262
        0x08001966:    68c1        .h      LDR      r1,[r0,#0xc]
        0x08001968:    43c9        .C      MVNS     r1,r1
        0x0800196a:    07c9        ..      LSLS     r1,r1,#31
        0x0800196c:    d104        ..      BNE      0x8001978 ; HAL_TIM_IRQHandler + 262
        0x0800196e:    1e89        ..      SUBS     r1,r1,#2
        0x08001970:    6101        .a      STR      r1,[r0,#0x10]
        0x08001972:    4620         F      MOV      r0,r4
        0x08001974:    f000f950    ..P.    BL       HAL_TIM_PeriodElapsedCallback ; 0x8001c18
        0x08001978:    6820         h      LDR      r0,[r4,#0]
        0x0800197a:    6901        .i      LDR      r1,[r0,#0x10]
        0x0800197c:    43c9        .C      MVNS     r1,r1
        0x0800197e:    0609        ..      LSLS     r1,r1,#24
        0x08001980:    d409        ..      BMI      0x8001996 ; HAL_TIM_IRQHandler + 292
        0x08001982:    68c1        .h      LDR      r1,[r0,#0xc]
        0x08001984:    43c9        .C      MVNS     r1,r1
        0x08001986:    0609        ..      LSLS     r1,r1,#24
        0x08001988:    d405        ..      BMI      0x8001996 ; HAL_TIM_IRQHandler + 292
        0x0800198a:    f06f0180    o...    MVN      r1,#0x80
        0x0800198e:    6101        .a      STR      r1,[r0,#0x10]
        0x08001990:    4620         F      MOV      r0,r4
        0x08001992:    f7fffe27    ..'.    BL       HAL_TIMEx_BreakCallback ; 0x80015e4
        0x08001996:    6820         h      LDR      r0,[r4,#0]
        0x08001998:    6901        .i      LDR      r1,[r0,#0x10]
        0x0800199a:    43c9        .C      MVNS     r1,r1
        0x0800199c:    0649        I.      LSLS     r1,r1,#25
        0x0800199e:    d409        ..      BMI      0x80019b4 ; HAL_TIM_IRQHandler + 322
        0x080019a0:    68c1        .h      LDR      r1,[r0,#0xc]
        0x080019a2:    43c9        .C      MVNS     r1,r1
        0x080019a4:    0649        I.      LSLS     r1,r1,#25
        0x080019a6:    d405        ..      BMI      0x80019b4 ; HAL_TIM_IRQHandler + 322
        0x080019a8:    f06f0140    o.@.    MVN      r1,#0x40
        0x080019ac:    6101        .a      STR      r1,[r0,#0x10]
        0x080019ae:    4620         F      MOV      r0,r4
        0x080019b0:    f000f93c    ..<.    BL       HAL_TIM_TriggerCallback ; 0x8001c2c
        0x080019b4:    6820         h      LDR      r0,[r4,#0]
        0x080019b6:    6901        .i      LDR      r1,[r0,#0x10]
        0x080019b8:    43c9        .C      MVNS     r1,r1
        0x080019ba:    0689        ..      LSLS     r1,r1,#26
        0x080019bc:    d40b        ..      BMI      0x80019d6 ; HAL_TIM_IRQHandler + 356
        0x080019be:    68c1        .h      LDR      r1,[r0,#0xc]
        0x080019c0:    43c9        .C      MVNS     r1,r1
        0x080019c2:    0689        ..      LSLS     r1,r1,#26
        0x080019c4:    d407        ..      BMI      0x80019d6 ; HAL_TIM_IRQHandler + 356
        0x080019c6:    f06f0120    o. .    MVN      r1,#0x20
        0x080019ca:    6101        .a      STR      r1,[r0,#0x10]
        0x080019cc:    4620         F      MOV      r0,r4
        0x080019ce:    e8bd4070    ..p@    POP      {r4-r6,lr}
        0x080019d2:    f7ffbe08    ....    B.W      HAL_TIMEx_CommutCallback ; 0x80015e6
        0x080019d6:    bd70        p.      POP      {r4-r6,pc}
    i.HAL_TIM_MspPostInit
    HAL_TIM_MspPostInit
        0x080019d8:    b570        p.      PUSH     {r4-r6,lr}
        0x080019da:    b086        ..      SUB      sp,sp,#0x18
        0x080019dc:    2100        .!      MOVS     r1,#0
        0x080019de:    9100        ..      STR      r1,[sp,#0]
        0x080019e0:    9101        ..      STR      r1,[sp,#4]
        0x080019e2:    9102        ..      STR      r1,[sp,#8]
        0x080019e4:    9103        ..      STR      r1,[sp,#0xc]
        0x080019e6:    6800        .h      LDR      r0,[r0,#0]
        0x080019e8:    4b30        0K      LDR      r3,[pc,#192] ; [0x8001aac] = 0x40012c00
        0x080019ea:    4931        1I      LDR      r1,[pc,#196] ; [0x8001ab0] = 0x40021000
        0x080019ec:    2402        .$      MOVS     r4,#2
        0x080019ee:    4a31        1J      LDR      r2,[pc,#196] ; [0x8001ab4] = 0x40010800
        0x080019f0:    4298        .B      CMP      r0,r3
        0x080019f2:    d111        ..      BNE      0x8001a18 ; HAL_TIM_MspPostInit + 64
        0x080019f4:    6988        .i      LDR      r0,[r1,#0x18]
        0x080019f6:    f0400004    @...    ORR      r0,r0,#4
        0x080019fa:    6188        .a      STR      r0,[r1,#0x18]
        0x080019fc:    6988        .i      LDR      r0,[r1,#0x18]
        0x080019fe:    9403        ..      STR      r4,[sp,#0xc]
        0x08001a00:    f0000004    ....    AND      r0,r0,#4
        0x08001a04:    9004        ..      STR      r0,[sp,#0x10]
        0x08001a06:    1588        ..      ASRS     r0,r1,#22
        0x08001a08:    e9cd0400    ....    STRD     r0,r4,[sp,#0]
        0x08001a0c:    4669        iF      MOV      r1,sp
        0x08001a0e:    4610        .F      MOV      r0,r2
        0x08001a10:    f7fefde8    ....    BL       HAL_GPIO_Init ; 0x80005e4
        0x08001a14:    b006        ..      ADD      sp,sp,#0x18
        0x08001a16:    bd70        p.      POP      {r4-r6,pc}
        0x08001a18:    4e27        'N      LDR      r6,[pc,#156] ; [0x8001ab8] = 0x40010c00
        0x08001a1a:    4d28        (M      LDR      r5,[pc,#160] ; [0x8001abc] = 0x40010000
        0x08001a1c:    f1b04f80    ...O    CMP      r0,#0x40000000
        0x08001a20:    d01b        ..      BEQ      0x8001a5a ; HAL_TIM_MspPostInit + 130
        0x08001a22:    4a27        'J      LDR      r2,[pc,#156] ; [0x8001ac0] = 0x40000400
        0x08001a24:    4290        .B      CMP      r0,r2
        0x08001a26:    d1f5        ..      BNE      0x8001a14 ; HAL_TIM_MspPostInit + 60
        0x08001a28:    6988        .i      LDR      r0,[r1,#0x18]
        0x08001a2a:    f0400008    @...    ORR      r0,r0,#8
        0x08001a2e:    6188        .a      STR      r0,[r1,#0x18]
        0x08001a30:    6988        .i      LDR      r0,[r1,#0x18]
        0x08001a32:    4669        iF      MOV      r1,sp
        0x08001a34:    f0000008    ....    AND      r0,r0,#8
        0x08001a38:    9004        ..      STR      r0,[sp,#0x10]
        0x08001a3a:    2010        .       MOVS     r0,#0x10
        0x08001a3c:    e9cd0400    ....    STRD     r0,r4,[sp,#0]
        0x08001a40:    4630        0F      MOV      r0,r6
        0x08001a42:    9403        ..      STR      r4,[sp,#0xc]
        0x08001a44:    f7fefdce    ....    BL       HAL_GPIO_Init ; 0x80005e4
        0x08001a48:    6868        hh      LDR      r0,[r5,#4]
        0x08001a4a:    f4206040     .@`    BIC      r0,r0,#0xc00
        0x08001a4e:    f04060e0    @..`    ORR      r0,r0,#0x7000000
        0x08001a52:    f4406000    @..`    ORR      r0,r0,#0x800
        0x08001a56:    6068        h`      STR      r0,[r5,#4]
        0x08001a58:    e7dc        ..      B        0x8001a14 ; HAL_TIM_MspPostInit + 60
        0x08001a5a:    6988        .i      LDR      r0,[r1,#0x18]
        0x08001a5c:    f0400004    @...    ORR      r0,r0,#4
        0x08001a60:    6188        .a      STR      r0,[r1,#0x18]
        0x08001a62:    6988        .i      LDR      r0,[r1,#0x18]
        0x08001a64:    f0000004    ....    AND      r0,r0,#4
        0x08001a68:    9004        ..      STR      r0,[sp,#0x10]
        0x08001a6a:    6988        .i      LDR      r0,[r1,#0x18]
        0x08001a6c:    f0400008    @...    ORR      r0,r0,#8
        0x08001a70:    6188        .a      STR      r0,[r1,#0x18]
        0x08001a72:    6988        .i      LDR      r0,[r1,#0x18]
        0x08001a74:    4669        iF      MOV      r1,sp
        0x08001a76:    f0000008    ....    AND      r0,r0,#8
        0x08001a7a:    9004        ..      STR      r0,[sp,#0x10]
        0x08001a7c:    f2480004    H...    MOV      r0,#0x8004
        0x08001a80:    e9cd0400    ....    STRD     r0,r4,[sp,#0]
        0x08001a84:    4610        .F      MOV      r0,r2
        0x08001a86:    9403        ..      STR      r4,[sp,#0xc]
        0x08001a88:    f7fefdac    ....    BL       HAL_GPIO_Init ; 0x80005e4
        0x08001a8c:    2008        .       MOVS     r0,#8
        0x08001a8e:    e9cd0400    ....    STRD     r0,r4,[sp,#0]
        0x08001a92:    4669        iF      MOV      r1,sp
        0x08001a94:    4630        0F      MOV      r0,r6
        0x08001a96:    9403        ..      STR      r4,[sp,#0xc]
        0x08001a98:    f7fefda4    ....    BL       HAL_GPIO_Init ; 0x80005e4
        0x08001a9c:    6868        hh      LDR      r0,[r5,#4]
        0x08001a9e:    f4207040     .@p    BIC      r0,r0,#0x300
        0x08001aa2:    f04060e0    @..`    ORR      r0,r0,#0x7000000
        0x08001aa6:    f4407080    @..p    ORR      r0,r0,#0x100
        0x08001aaa:    e7d4        ..      B        0x8001a56 ; HAL_TIM_MspPostInit + 126
    $d
        0x08001aac:    40012c00    .,.@    DCD    1073818624
        0x08001ab0:    40021000    ...@    DCD    1073876992
        0x08001ab4:    40010800    ...@    DCD    1073809408
        0x08001ab8:    40010c00    ...@    DCD    1073810432
        0x08001abc:    40010000    ...@    DCD    1073807360
        0x08001ac0:    40000400    ...@    DCD    1073742848
    $t
    i.HAL_TIM_OC_DelayElapsedCallback
    HAL_TIM_OC_DelayElapsedCallback
        0x08001ac4:    4770        pG      BX       lr
    i.HAL_TIM_PWM_ConfigChannel
    HAL_TIM_PWM_ConfigChannel
        0x08001ac6:    b570        p.      PUSH     {r4-r6,lr}
        0x08001ac8:    4604        .F      MOV      r4,r0
        0x08001aca:    f890003c    ..<.    LDRB     r0,[r0,#0x3c]
        0x08001ace:    2600        .&      MOVS     r6,#0
        0x08001ad0:    460d        .F      MOV      r5,r1
        0x08001ad2:    2801        .(      CMP      r0,#1
        0x08001ad4:    d00f        ..      BEQ      0x8001af6 ; HAL_TIM_PWM_ConfigChannel + 48
        0x08001ad6:    2001        .       MOVS     r0,#1
        0x08001ad8:    f884003c    ..<.    STRB     r0,[r4,#0x3c]
        0x08001adc:    b16a        j.      CBZ      r2,0x8001afa ; HAL_TIM_PWM_ConfigChannel + 52
        0x08001ade:    2a04        .*      CMP      r2,#4
        0x08001ae0:    d01d        ..      BEQ      0x8001b1e ; HAL_TIM_PWM_ConfigChannel + 88
        0x08001ae2:    2a08        .*      CMP      r2,#8
        0x08001ae4:    d02f        /.      BEQ      0x8001b46 ; HAL_TIM_PWM_ConfigChannel + 128
        0x08001ae6:    2a0c        .*      CMP      r2,#0xc
        0x08001ae8:    d03f        ?.      BEQ      0x8001b6a ; HAL_TIM_PWM_ConfigChannel + 164
        0x08001aea:    2601        .&      MOVS     r6,#1
        0x08001aec:    2000        .       MOVS     r0,#0
        0x08001aee:    f884003c    ..<.    STRB     r0,[r4,#0x3c]
        0x08001af2:    4630        0F      MOV      r0,r6
        0x08001af4:    bd70        p.      POP      {r4-r6,pc}
        0x08001af6:    2002        .       MOVS     r0,#2
        0x08001af8:    bd70        p.      POP      {r4-r6,pc}
        0x08001afa:    6820         h      LDR      r0,[r4,#0]
        0x08001afc:    f001f8c2    ....    BL       TIM_OC1_SetConfig ; 0x8002c84
        0x08001b00:    6820         h      LDR      r0,[r4,#0]
        0x08001b02:    6981        .i      LDR      r1,[r0,#0x18]
        0x08001b04:    f0410108    A...    ORR      r1,r1,#8
        0x08001b08:    6181        .a      STR      r1,[r0,#0x18]
        0x08001b0a:    6820         h      LDR      r0,[r4,#0]
        0x08001b0c:    6981        .i      LDR      r1,[r0,#0x18]
        0x08001b0e:    f0210104    !...    BIC      r1,r1,#4
        0x08001b12:    6181        .a      STR      r1,[r0,#0x18]
        0x08001b14:    6820         h      LDR      r0,[r4,#0]
        0x08001b16:    6981        .i      LDR      r1,[r0,#0x18]
        0x08001b18:    692a        *i      LDR      r2,[r5,#0x10]
        0x08001b1a:    4311        .C      ORRS     r1,r1,r2
        0x08001b1c:    e011        ..      B        0x8001b42 ; HAL_TIM_PWM_ConfigChannel + 124
        0x08001b1e:    6820         h      LDR      r0,[r4,#0]
        0x08001b20:    f001f8d8    ....    BL       TIM_OC2_SetConfig ; 0x8002cd4
        0x08001b24:    6820         h      LDR      r0,[r4,#0]
        0x08001b26:    6981        .i      LDR      r1,[r0,#0x18]
        0x08001b28:    f4416100    A..a    ORR      r1,r1,#0x800
        0x08001b2c:    6181        .a      STR      r1,[r0,#0x18]
        0x08001b2e:    6820         h      LDR      r0,[r4,#0]
        0x08001b30:    6981        .i      LDR      r1,[r0,#0x18]
        0x08001b32:    f4216180    !..a    BIC      r1,r1,#0x400
        0x08001b36:    6181        .a      STR      r1,[r0,#0x18]
        0x08001b38:    6820         h      LDR      r0,[r4,#0]
        0x08001b3a:    6981        .i      LDR      r1,[r0,#0x18]
        0x08001b3c:    692a        *i      LDR      r2,[r5,#0x10]
        0x08001b3e:    ea412102    A..!    ORR      r1,r1,r2,LSL #8
        0x08001b42:    6181        .a      STR      r1,[r0,#0x18]
        0x08001b44:    e7d2        ..      B        0x8001aec ; HAL_TIM_PWM_ConfigChannel + 38
        0x08001b46:    6820         h      LDR      r0,[r4,#0]
        0x08001b48:    f001f8f0    ....    BL       TIM_OC3_SetConfig ; 0x8002d2c
        0x08001b4c:    6820         h      LDR      r0,[r4,#0]
        0x08001b4e:    69c1        .i      LDR      r1,[r0,#0x1c]
        0x08001b50:    f0410108    A...    ORR      r1,r1,#8
        0x08001b54:    61c1        .a      STR      r1,[r0,#0x1c]
        0x08001b56:    6820         h      LDR      r0,[r4,#0]
        0x08001b58:    69c1        .i      LDR      r1,[r0,#0x1c]
        0x08001b5a:    f0210104    !...    BIC      r1,r1,#4
        0x08001b5e:    61c1        .a      STR      r1,[r0,#0x1c]
        0x08001b60:    6820         h      LDR      r0,[r4,#0]
        0x08001b62:    69c1        .i      LDR      r1,[r0,#0x1c]
        0x08001b64:    692a        *i      LDR      r2,[r5,#0x10]
        0x08001b66:    4311        .C      ORRS     r1,r1,r2
        0x08001b68:    e011        ..      B        0x8001b8e ; HAL_TIM_PWM_ConfigChannel + 200
        0x08001b6a:    6820         h      LDR      r0,[r4,#0]
        0x08001b6c:    f001f90a    ....    BL       TIM_OC4_SetConfig ; 0x8002d84
        0x08001b70:    6820         h      LDR      r0,[r4,#0]
        0x08001b72:    69c1        .i      LDR      r1,[r0,#0x1c]
        0x08001b74:    f4416100    A..a    ORR      r1,r1,#0x800
        0x08001b78:    61c1        .a      STR      r1,[r0,#0x1c]
        0x08001b7a:    6820         h      LDR      r0,[r4,#0]
        0x08001b7c:    69c1        .i      LDR      r1,[r0,#0x1c]
        0x08001b7e:    f4216180    !..a    BIC      r1,r1,#0x400
        0x08001b82:    61c1        .a      STR      r1,[r0,#0x1c]
        0x08001b84:    6820         h      LDR      r0,[r4,#0]
        0x08001b86:    69c1        .i      LDR      r1,[r0,#0x1c]
        0x08001b88:    692a        *i      LDR      r2,[r5,#0x10]
        0x08001b8a:    ea412102    A..!    ORR      r1,r1,r2,LSL #8
        0x08001b8e:    61c1        .a      STR      r1,[r0,#0x1c]
        0x08001b90:    e7ac        ..      B        0x8001aec ; HAL_TIM_PWM_ConfigChannel + 38
    i.HAL_TIM_PWM_Init
    HAL_TIM_PWM_Init
        0x08001b92:    b510        ..      PUSH     {r4,lr}
        0x08001b94:    0004        ..      MOVS     r4,r0
        0x08001b96:    d003        ..      BEQ      0x8001ba0 ; HAL_TIM_PWM_Init + 14
        0x08001b98:    f894003d    ..=.    LDRB     r0,[r4,#0x3d]
        0x08001b9c:    b110        ..      CBZ      r0,0x8001ba4 ; HAL_TIM_PWM_Init + 18
        0x08001b9e:    e007        ..      B        0x8001bb0 ; HAL_TIM_PWM_Init + 30
        0x08001ba0:    2001        .       MOVS     r0,#1
        0x08001ba2:    bd10        ..      POP      {r4,pc}
        0x08001ba4:    2000        .       MOVS     r0,#0
        0x08001ba6:    f884003c    ..<.    STRB     r0,[r4,#0x3c]
        0x08001baa:    4620         F      MOV      r0,r4
        0x08001bac:    f000f81e    ....    BL       HAL_TIM_PWM_MspInit ; 0x8001bec
        0x08001bb0:    2002        .       MOVS     r0,#2
        0x08001bb2:    f884003d    ..=.    STRB     r0,[r4,#0x3d]
        0x08001bb6:    1d21        !.      ADDS     r1,r4,#4
        0x08001bb8:    6820         h      LDR      r0,[r4,#0]
        0x08001bba:    f001f81b    ....    BL       TIM_Base_SetConfig ; 0x8002bf4
        0x08001bbe:    2001        .       MOVS     r0,#1
        0x08001bc0:    f8840046    ..F.    STRB     r0,[r4,#0x46]
        0x08001bc4:    f884003e    ..>.    STRB     r0,[r4,#0x3e]
        0x08001bc8:    f884003f    ..?.    STRB     r0,[r4,#0x3f]
        0x08001bcc:    f8840040    ..@.    STRB     r0,[r4,#0x40]
        0x08001bd0:    f8840041    ..A.    STRB     r0,[r4,#0x41]
        0x08001bd4:    f8840042    ..B.    STRB     r0,[r4,#0x42]
        0x08001bd8:    f8840043    ..C.    STRB     r0,[r4,#0x43]
        0x08001bdc:    f8840044    ..D.    STRB     r0,[r4,#0x44]
        0x08001be0:    f8840045    ..E.    STRB     r0,[r4,#0x45]
        0x08001be4:    f884003d    ..=.    STRB     r0,[r4,#0x3d]
        0x08001be8:    2000        .       MOVS     r0,#0
        0x08001bea:    bd10        ..      POP      {r4,pc}
    i.HAL_TIM_PWM_MspInit
    HAL_TIM_PWM_MspInit
        0x08001bec:    b508        ..      PUSH     {r3,lr}
        0x08001bee:    6800        .h      LDR      r0,[r0,#0]
        0x08001bf0:    4906        .I      LDR      r1,[pc,#24] ; [0x8001c0c] = 0x40000400
        0x08001bf2:    4288        .B      CMP      r0,r1
        0x08001bf4:    d108        ..      BNE      0x8001c08 ; HAL_TIM_PWM_MspInit + 28
        0x08001bf6:    4806        .H      LDR      r0,[pc,#24] ; [0x8001c10] = 0x40021000
        0x08001bf8:    69c1        .i      LDR      r1,[r0,#0x1c]
        0x08001bfa:    f0410102    A...    ORR      r1,r1,#2
        0x08001bfe:    61c1        .a      STR      r1,[r0,#0x1c]
        0x08001c00:    69c0        .i      LDR      r0,[r0,#0x1c]
        0x08001c02:    f0000002    ....    AND      r0,r0,#2
        0x08001c06:    9000        ..      STR      r0,[sp,#0]
        0x08001c08:    bd08        ..      POP      {r3,pc}
    $d
        0x08001c0a:    0000        ..      DCW    0
        0x08001c0c:    40000400    ...@    DCD    1073742848
        0x08001c10:    40021000    ...@    DCD    1073876992
    $t
    i.HAL_TIM_PWM_PulseFinishedCallback
    HAL_TIM_PWM_PulseFinishedCallback
        0x08001c14:    4770        pG      BX       lr
        0x08001c16:    0000        ..      MOVS     r0,r0
    i.HAL_TIM_PeriodElapsedCallback
    HAL_TIM_PeriodElapsedCallback
        0x08001c18:    6800        .h      LDR      r0,[r0,#0]
        0x08001c1a:    4903        .I      LDR      r1,[pc,#12] ; [0x8001c28] = 0x40000800
        0x08001c1c:    4288        .B      CMP      r0,r1
        0x08001c1e:    d101        ..      BNE      0x8001c24 ; HAL_TIM_PeriodElapsedCallback + 12
        0x08001c20:    f7ffb800    ....    B        HAL_IncTick ; 0x8000c24
        0x08001c24:    4770        pG      BX       lr
    $d
        0x08001c26:    0000        ..      DCW    0
        0x08001c28:    40000800    ...@    DCD    1073743872
    $t
    i.HAL_TIM_TriggerCallback
    HAL_TIM_TriggerCallback
        0x08001c2c:    4770        pG      BX       lr
    i.HAL_UART_Init
    HAL_UART_Init
        0x08001c2e:    b570        p.      PUSH     {r4-r6,lr}
        0x08001c30:    0004        ..      MOVS     r4,r0
        0x08001c32:    d004        ..      BEQ      0x8001c3e ; HAL_UART_Init + 16
        0x08001c34:    f8940041    ..A.    LDRB     r0,[r4,#0x41]
        0x08001c38:    2500        .%      MOVS     r5,#0
        0x08001c3a:    b110        ..      CBZ      r0,0x8001c42 ; HAL_UART_Init + 20
        0x08001c3c:    e006        ..      B        0x8001c4c ; HAL_UART_Init + 30
        0x08001c3e:    2001        .       MOVS     r0,#1
        0x08001c40:    bd70        p.      POP      {r4-r6,pc}
        0x08001c42:    f8845040    ..@P    STRB     r5,[r4,#0x40]
        0x08001c46:    4620         F      MOV      r0,r4
        0x08001c48:    f000f824    ..$.    BL       HAL_UART_MspInit ; 0x8001c94
        0x08001c4c:    2024        $       MOVS     r0,#0x24
        0x08001c4e:    f8840041    ..A.    STRB     r0,[r4,#0x41]
        0x08001c52:    6820         h      LDR      r0,[r4,#0]
        0x08001c54:    68c1        .h      LDR      r1,[r0,#0xc]
        0x08001c56:    f4215100    !..Q    BIC      r1,r1,#0x2000
        0x08001c5a:    60c1        .`      STR      r1,[r0,#0xc]
        0x08001c5c:    4620         F      MOV      r0,r4
        0x08001c5e:    f001f8d7    ....    BL       UART_SetConfig ; 0x8002e10
        0x08001c62:    6820         h      LDR      r0,[r4,#0]
        0x08001c64:    6901        .i      LDR      r1,[r0,#0x10]
        0x08001c66:    f4214190    !..A    BIC      r1,r1,#0x4800
        0x08001c6a:    6101        .a      STR      r1,[r0,#0x10]
        0x08001c6c:    6820         h      LDR      r0,[r4,#0]
        0x08001c6e:    6941        Ai      LDR      r1,[r0,#0x14]
        0x08001c70:    f021012a    !.*.    BIC      r1,r1,#0x2a
        0x08001c74:    6141        Aa      STR      r1,[r0,#0x14]
        0x08001c76:    6820         h      LDR      r0,[r4,#0]
        0x08001c78:    68c1        .h      LDR      r1,[r0,#0xc]
        0x08001c7a:    f4415100    A..Q    ORR      r1,r1,#0x2000
        0x08001c7e:    60c1        .`      STR      r1,[r0,#0xc]
        0x08001c80:    6465        ed      STR      r5,[r4,#0x44]
        0x08001c82:    2020                MOVS     r0,#0x20
        0x08001c84:    f8840041    ..A.    STRB     r0,[r4,#0x41]
        0x08001c88:    f8840042    ..B.    STRB     r0,[r4,#0x42]
        0x08001c8c:    6365        ec      STR      r5,[r4,#0x34]
        0x08001c8e:    2000        .       MOVS     r0,#0
        0x08001c90:    bd70        p.      POP      {r4-r6,pc}
        0x08001c92:    0000        ..      MOVS     r0,r0
    i.HAL_UART_MspInit
    HAL_UART_MspInit
        0x08001c94:    b530        0.      PUSH     {r4,r5,lr}
        0x08001c96:    b085        ..      SUB      sp,sp,#0x14
        0x08001c98:    2400        .$      MOVS     r4,#0
        0x08001c9a:    9400        ..      STR      r4,[sp,#0]
        0x08001c9c:    9401        ..      STR      r4,[sp,#4]
        0x08001c9e:    9402        ..      STR      r4,[sp,#8]
        0x08001ca0:    9403        ..      STR      r4,[sp,#0xc]
        0x08001ca2:    6800        .h      LDR      r0,[r0,#0]
        0x08001ca4:    4914        .I      LDR      r1,[pc,#80] ; [0x8001cf8] = 0x40013800
        0x08001ca6:    4288        .B      CMP      r0,r1
        0x08001ca8:    d124        $.      BNE      0x8001cf4 ; HAL_UART_MspInit + 96
        0x08001caa:    4814        .H      LDR      r0,[pc,#80] ; [0x8001cfc] = 0x40021000
        0x08001cac:    6981        .i      LDR      r1,[r0,#0x18]
        0x08001cae:    f4414180    A..A    ORR      r1,r1,#0x4000
        0x08001cb2:    6181        .a      STR      r1,[r0,#0x18]
        0x08001cb4:    6981        .i      LDR      r1,[r0,#0x18]
        0x08001cb6:    f4014180    ...A    AND      r1,r1,#0x4000
        0x08001cba:    9104        ..      STR      r1,[sp,#0x10]
        0x08001cbc:    6981        .i      LDR      r1,[r0,#0x18]
        0x08001cbe:    f0410104    A...    ORR      r1,r1,#4
        0x08001cc2:    6181        .a      STR      r1,[r0,#0x18]
        0x08001cc4:    6980        .i      LDR      r0,[r0,#0x18]
        0x08001cc6:    4d0e        .M      LDR      r5,[pc,#56] ; [0x8001d00] = 0x40010800
        0x08001cc8:    f0000004    ....    AND      r0,r0,#4
        0x08001ccc:    9004        ..      STR      r0,[sp,#0x10]
        0x08001cce:    f44f7000    O..p    MOV      r0,#0x200
        0x08001cd2:    9000        ..      STR      r0,[sp,#0]
        0x08001cd4:    2002        .       MOVS     r0,#2
        0x08001cd6:    9001        ..      STR      r0,[sp,#4]
        0x08001cd8:    2003        .       MOVS     r0,#3
        0x08001cda:    9003        ..      STR      r0,[sp,#0xc]
        0x08001cdc:    4669        iF      MOV      r1,sp
        0x08001cde:    4628        (F      MOV      r0,r5
        0x08001ce0:    f7fefc80    ....    BL       HAL_GPIO_Init ; 0x80005e4
        0x08001ce4:    1528        (.      ASRS     r0,r5,#20
        0x08001ce6:    e9cd0400    ....    STRD     r0,r4,[sp,#0]
        0x08001cea:    4669        iF      MOV      r1,sp
        0x08001cec:    4628        (F      MOV      r0,r5
        0x08001cee:    9402        ..      STR      r4,[sp,#8]
        0x08001cf0:    f7fefc78    ..x.    BL       HAL_GPIO_Init ; 0x80005e4
        0x08001cf4:    b005        ..      ADD      sp,sp,#0x14
        0x08001cf6:    bd30        0.      POP      {r4,r5,pc}
    $d
        0x08001cf8:    40013800    .8.@    DCD    1073821696
        0x08001cfc:    40021000    ...@    DCD    1073876992
        0x08001d00:    40010800    ...@    DCD    1073809408
    $t
    i.HardFault_Handler
    HardFault_Handler
        0x08001d04:    e7fe        ..      B        HardFault_Handler ; 0x8001d04
    i.I2C_IsAcknowledgeFailed
    I2C_IsAcknowledgeFailed
        0x08001d06:    6801        .h      LDR      r1,[r0,#0]
        0x08001d08:    694a        Ji      LDR      r2,[r1,#0x14]
        0x08001d0a:    43d2        .C      MVNS     r2,r2
        0x08001d0c:    0552        R.      LSLS     r2,r2,#21
        0x08001d0e:    d40f        ..      BMI      0x8001d30 ; I2C_IsAcknowledgeFailed + 42
        0x08001d10:    f46f6280    o..b    MVN      r2,#0x400
        0x08001d14:    614a        Ja      STR      r2,[r1,#0x14]
        0x08001d16:    2100        .!      MOVS     r1,#0
        0x08001d18:    f8401f30    @.0.    STR      r1,[r0,#0x30]!
        0x08001d1c:    2220         "      MOVS     r2,#0x20
        0x08001d1e:    7342        Bs      STRB     r2,[r0,#0xd]
        0x08001d20:    7381        .s      STRB     r1,[r0,#0xe]
        0x08001d22:    6902        .i      LDR      r2,[r0,#0x10]
        0x08001d24:    f0420204    B...    ORR      r2,r2,#4
        0x08001d28:    6102        .a      STR      r2,[r0,#0x10]
        0x08001d2a:    7301        .s      STRB     r1,[r0,#0xc]
        0x08001d2c:    2001        .       MOVS     r0,#1
        0x08001d2e:    4770        pG      BX       lr
        0x08001d30:    2000        .       MOVS     r0,#0
        0x08001d32:    4770        pG      BX       lr
    i.I2C_MasterRequestWrite
    I2C_MasterRequestWrite
        0x08001d34:    b5f8        ..      PUSH     {r3-r7,lr}
        0x08001d36:    4604        .F      MOV      r4,r0
        0x08001d38:    6ac0        .j      LDR      r0,[r0,#0x2c]
        0x08001d3a:    461e        .F      MOV      r6,r3
        0x08001d3c:    460d        .F      MOV      r5,r1
        0x08001d3e:    4617        .F      MOV      r7,r2
        0x08001d40:    2808        .(      CMP      r0,#8
        0x08001d42:    d007        ..      BEQ      0x8001d54 ; I2C_MasterRequestWrite + 32
        0x08001d44:    2801        .(      CMP      r0,#1
        0x08001d46:    d005        ..      BEQ      0x8001d54 ; I2C_MasterRequestWrite + 32
        0x08001d48:    f5103f80    ...?    CMN      r0,#0x10000
        0x08001d4c:    d002        ..      BEQ      0x8001d54 ; I2C_MasterRequestWrite + 32
        0x08001d4e:    6b20         k      LDR      r0,[r4,#0x30]
        0x08001d50:    2812        .(      CMP      r0,#0x12
        0x08001d52:    d104        ..      BNE      0x8001d5e ; I2C_MasterRequestWrite + 42
        0x08001d54:    6820         h      LDR      r0,[r4,#0]
        0x08001d56:    6801        .h      LDR      r1,[r0,#0]
        0x08001d58:    f4417180    A..q    ORR      r1,r1,#0x100
        0x08001d5c:    6001        .`      STR      r1,[r0,#0]
        0x08001d5e:    4613        .F      MOV      r3,r2
        0x08001d60:    2200        ."      MOVS     r2,#0
        0x08001d62:    f04f1101    O...    MOV      r1,#0x10001
        0x08001d66:    4620         F      MOV      r0,r4
        0x08001d68:    9600        ..      STR      r6,[sp,#0]
        0x08001d6a:    f000f8b1    ....    BL       I2C_WaitOnFlagUntilTimeout ; 0x8001ed0
        0x08001d6e:    b140        @.      CBZ      r0,0x8001d82 ; I2C_MasterRequestWrite + 78
        0x08001d70:    6820         h      LDR      r0,[r4,#0]
        0x08001d72:    6800        .h      LDR      r0,[r0,#0]
        0x08001d74:    05c0        ..      LSLS     r0,r0,#23
        0x08001d76:    d502        ..      BPL      0x8001d7e ; I2C_MasterRequestWrite + 74
        0x08001d78:    f44f7000    O..p    MOV      r0,#0x200
        0x08001d7c:    6420         d      STR      r0,[r4,#0x40]
        0x08001d7e:    2003        .       MOVS     r0,#3
        0x08001d80:    bdf8        ..      POP      {r3-r7,pc}
        0x08001d82:    6920         i      LDR      r0,[r4,#0x10]
        0x08001d84:    f5b04f80    ...O    CMP      r0,#0x4000
        0x08001d88:    d00e        ..      BEQ      0x8001da8 ; I2C_MasterRequestWrite + 116
        0x08001d8a:    2006        .       MOVS     r0,#6
        0x08001d8c:    6821        !h      LDR      r1,[r4,#0]
        0x08001d8e:    ea0010d5    ....    AND      r0,r0,r5,LSR #7
        0x08001d92:    f04000f0    @...    ORR      r0,r0,#0xf0
        0x08001d96:    6108        .a      STR      r0,[r1,#0x10]
        0x08001d98:    4633        3F      MOV      r3,r6
        0x08001d9a:    463a        :F      MOV      r2,r7
        0x08001d9c:    490b        .I      LDR      r1,[pc,#44] ; [0x8001dcc] = 0x10008
        0x08001d9e:    4620         F      MOV      r0,r4
        0x08001da0:    f000f8de    ....    BL       I2C_WaitOnMasterAddressFlagUntilTimeout ; 0x8001f60
        0x08001da4:    b978        x.      CBNZ     r0,0x8001dc6 ; I2C_MasterRequestWrite + 146
        0x08001da6:    e002        ..      B        0x8001dae ; I2C_MasterRequestWrite + 122
        0x08001da8:    f00500fe    ....    AND      r0,r5,#0xfe
        0x08001dac:    e000        ..      B        0x8001db0 ; I2C_MasterRequestWrite + 124
        0x08001dae:    b2e8        ..      UXTB     r0,r5
        0x08001db0:    6821        !h      LDR      r1,[r4,#0]
        0x08001db2:    6108        .a      STR      r0,[r1,#0x10]
        0x08001db4:    4905        .I      LDR      r1,[pc,#20] ; [0x8001dcc] = 0x10008
        0x08001db6:    4633        3F      MOV      r3,r6
        0x08001db8:    463a        :F      MOV      r2,r7
        0x08001dba:    1f89        ..      SUBS     r1,r1,#6
        0x08001dbc:    4620         F      MOV      r0,r4
        0x08001dbe:    f000f8cf    ....    BL       I2C_WaitOnMasterAddressFlagUntilTimeout ; 0x8001f60
        0x08001dc2:    2800        .(      CMP      r0,#0
        0x08001dc4:    d0dc        ..      BEQ      0x8001d80 ; I2C_MasterRequestWrite + 76
        0x08001dc6:    2001        .       MOVS     r0,#1
        0x08001dc8:    bdf8        ..      POP      {r3-r7,pc}
    $d
        0x08001dca:    0000        ..      DCW    0
        0x08001dcc:    00010008    ....    DCD    65544
    $t
    i.I2C_RequestMemoryWrite
    I2C_RequestMemoryWrite
        0x08001dd0:    e92d43f8    -..C    PUSH     {r3-r9,lr}
        0x08001dd4:    4604        .F      MOV      r4,r0
        0x08001dd6:    6800        .h      LDR      r0,[r0,#0]
        0x08001dd8:    460d        .F      MOV      r5,r1
        0x08001dda:    e9dd9708    ....    LDRD     r9,r7,[sp,#0x20]
        0x08001dde:    6801        .h      LDR      r1,[r0,#0]
        0x08001de0:    4698        .F      MOV      r8,r3
        0x08001de2:    4616        .F      MOV      r6,r2
        0x08001de4:    f4417180    A..q    ORR      r1,r1,#0x100
        0x08001de8:    6001        .`      STR      r1,[r0,#0]
        0x08001dea:    464b        KF      MOV      r3,r9
        0x08001dec:    2200        ."      MOVS     r2,#0
        0x08001dee:    f04f1101    O...    MOV      r1,#0x10001
        0x08001df2:    4620         F      MOV      r0,r4
        0x08001df4:    9700        ..      STR      r7,[sp,#0]
        0x08001df6:    f000f86b    ..k.    BL       I2C_WaitOnFlagUntilTimeout ; 0x8001ed0
        0x08001dfa:    b148        H.      CBZ      r0,0x8001e10 ; I2C_RequestMemoryWrite + 64
        0x08001dfc:    6820         h      LDR      r0,[r4,#0]
        0x08001dfe:    6800        .h      LDR      r0,[r0,#0]
        0x08001e00:    05c0        ..      LSLS     r0,r0,#23
        0x08001e02:    d502        ..      BPL      0x8001e0a ; I2C_RequestMemoryWrite + 58
        0x08001e04:    f44f7000    O..p    MOV      r0,#0x200
        0x08001e08:    6420         d      STR      r0,[r4,#0x40]
        0x08001e0a:    2003        .       MOVS     r0,#3
        0x08001e0c:    e8bd83f8    ....    POP      {r3-r9,pc}
        0x08001e10:    6821        !h      LDR      r1,[r4,#0]
        0x08001e12:    f00500fe    ....    AND      r0,r5,#0xfe
        0x08001e16:    6108        .a      STR      r0,[r1,#0x10]
        0x08001e18:    463b        ;F      MOV      r3,r7
        0x08001e1a:    464a        JF      MOV      r2,r9
        0x08001e1c:    4915        .I      LDR      r1,[pc,#84] ; [0x8001e74] = 0x10002
        0x08001e1e:    4620         F      MOV      r0,r4
        0x08001e20:    f000f89e    ....    BL       I2C_WaitOnMasterAddressFlagUntilTimeout ; 0x8001f60
        0x08001e24:    b988        ..      CBNZ     r0,0x8001e4a ; I2C_RequestMemoryWrite + 122
        0x08001e26:    6820         h      LDR      r0,[r4,#0]
        0x08001e28:    6941        Ai      LDR      r1,[r0,#0x14]
        0x08001e2a:    6980        .i      LDR      r0,[r0,#0x18]
        0x08001e2c:    9000        ..      STR      r0,[sp,#0]
        0x08001e2e:    463a        :F      MOV      r2,r7
        0x08001e30:    4649        IF      MOV      r1,r9
        0x08001e32:    4620         F      MOV      r0,r4
        0x08001e34:    f000f8f2    ....    BL       I2C_WaitOnTXEFlagUntilTimeout ; 0x800201c
        0x08001e38:    b148        H.      CBZ      r0,0x8001e4e ; I2C_RequestMemoryWrite + 126
        0x08001e3a:    6c20         l      LDR      r0,[r4,#0x40]
        0x08001e3c:    2804        .(      CMP      r0,#4
        0x08001e3e:    d104        ..      BNE      0x8001e4a ; I2C_RequestMemoryWrite + 122
        0x08001e40:    6820         h      LDR      r0,[r4,#0]
        0x08001e42:    6801        .h      LDR      r1,[r0,#0]
        0x08001e44:    f4417100    A..q    ORR      r1,r1,#0x200
        0x08001e48:    6001        .`      STR      r1,[r0,#0]
        0x08001e4a:    2001        .       MOVS     r0,#1
        0x08001e4c:    e7de        ..      B        0x8001e0c ; I2C_RequestMemoryWrite + 60
        0x08001e4e:    b2f5        ..      UXTB     r5,r6
        0x08001e50:    f1b80f01    ....    CMP      r8,#1
        0x08001e54:    d009        ..      BEQ      0x8001e6a ; I2C_RequestMemoryWrite + 154
        0x08001e56:    6821        !h      LDR      r1,[r4,#0]
        0x08001e58:    0a30        0.      LSRS     r0,r6,#8
        0x08001e5a:    6108        .a      STR      r0,[r1,#0x10]
        0x08001e5c:    463a        :F      MOV      r2,r7
        0x08001e5e:    4649        IF      MOV      r1,r9
        0x08001e60:    4620         F      MOV      r0,r4
        0x08001e62:    f000f8db    ....    BL       I2C_WaitOnTXEFlagUntilTimeout ; 0x800201c
        0x08001e66:    2800        .(      CMP      r0,#0
        0x08001e68:    d1e7        ..      BNE      0x8001e3a ; I2C_RequestMemoryWrite + 106
        0x08001e6a:    6820         h      LDR      r0,[r4,#0]
        0x08001e6c:    6105        .a      STR      r5,[r0,#0x10]
        0x08001e6e:    2000        .       MOVS     r0,#0
        0x08001e70:    e7cc        ..      B        0x8001e0c ; I2C_RequestMemoryWrite + 60
    $d
        0x08001e72:    0000        ..      DCW    0
        0x08001e74:    00010002    ....    DCD    65538
    $t
    i.I2C_WaitOnBTFFlagUntilTimeout
    I2C_WaitOnBTFFlagUntilTimeout
        0x08001e78:    b570        p.      PUSH     {r4-r6,lr}
        0x08001e7a:    4616        .F      MOV      r6,r2
        0x08001e7c:    460d        .F      MOV      r5,r1
        0x08001e7e:    4604        .F      MOV      r4,r0
        0x08001e80:    e01e        ..      B        0x8001ec0 ; I2C_WaitOnBTFFlagUntilTimeout + 72
        0x08001e82:    4620         F      MOV      r0,r4
        0x08001e84:    f7ffff3f    ..?.    BL       I2C_IsAcknowledgeFailed ; 0x8001d06
        0x08001e88:    b108        ..      CBZ      r0,0x8001e8e ; I2C_WaitOnBTFFlagUntilTimeout + 22
        0x08001e8a:    2001        .       MOVS     r0,#1
        0x08001e8c:    bd70        p.      POP      {r4-r6,pc}
        0x08001e8e:    1c68        h.      ADDS     r0,r5,#1
        0x08001e90:    d016        ..      BEQ      0x8001ec0 ; I2C_WaitOnBTFFlagUntilTimeout + 72
        0x08001e92:    f7fefca1    ....    BL       HAL_GetTick ; 0x80007d8
        0x08001e96:    1b80        ..      SUBS     r0,r0,r6
        0x08001e98:    42a8        .B      CMP      r0,r5
        0x08001e9a:    d800        ..      BHI      0x8001e9e ; I2C_WaitOnBTFFlagUntilTimeout + 38
        0x08001e9c:    b985        ..      CBNZ     r5,0x8001ec0 ; I2C_WaitOnBTFFlagUntilTimeout + 72
        0x08001e9e:    6820         h      LDR      r0,[r4,#0]
        0x08001ea0:    6940        @i      LDR      r0,[r0,#0x14]
        0x08001ea2:    43c0        .C      MVNS     r0,r0
        0x08001ea4:    0740        @.      LSLS     r0,r0,#29
        0x08001ea6:    d50b        ..      BPL      0x8001ec0 ; I2C_WaitOnBTFFlagUntilTimeout + 72
        0x08001ea8:    2000        .       MOVS     r0,#0
        0x08001eaa:    f8440f30    D.0.    STR      r0,[r4,#0x30]!
        0x08001eae:    2120         !      MOVS     r1,#0x20
        0x08001eb0:    7361        as      STRB     r1,[r4,#0xd]
        0x08001eb2:    73a0        .s      STRB     r0,[r4,#0xe]
        0x08001eb4:    6921        !i      LDR      r1,[r4,#0x10]
        0x08001eb6:    f0410120    A. .    ORR      r1,r1,#0x20
        0x08001eba:    6121        !a      STR      r1,[r4,#0x10]
        0x08001ebc:    7320         s      STRB     r0,[r4,#0xc]
        0x08001ebe:    e7e4        ..      B        0x8001e8a ; I2C_WaitOnBTFFlagUntilTimeout + 18
        0x08001ec0:    6820         h      LDR      r0,[r4,#0]
        0x08001ec2:    6940        @i      LDR      r0,[r0,#0x14]
        0x08001ec4:    43c0        .C      MVNS     r0,r0
        0x08001ec6:    0740        @.      LSLS     r0,r0,#29
        0x08001ec8:    d4db        ..      BMI      0x8001e82 ; I2C_WaitOnBTFFlagUntilTimeout + 10
        0x08001eca:    2000        .       MOVS     r0,#0
        0x08001ecc:    bd70        p.      POP      {r4-r6,pc}
        0x08001ece:    0000        ..      MOVS     r0,r0
    i.I2C_WaitOnFlagUntilTimeout
    I2C_WaitOnFlagUntilTimeout
        0x08001ed0:    e92d47f0    -..G    PUSH     {r4-r10,lr}
        0x08001ed4:    4698        .F      MOV      r8,r3
        0x08001ed6:    4617        .F      MOV      r7,r2
        0x08001ed8:    460d        .F      MOV      r5,r1
        0x08001eda:    4604        .F      MOV      r4,r0
        0x08001edc:    f3c14607    ...F    UBFX     r6,r1,#16,#8
        0x08001ee0:    f8dd9020    .. .    LDR      r9,[sp,#0x20]
        0x08001ee4:    e02a        *.      B        0x8001f3c ; I2C_WaitOnFlagUntilTimeout + 108
        0x08001ee6:    bf00        ..      NOP      
        0x08001ee8:    f1b83fff    ...?    CMP      r8,#0xffffffff
        0x08001eec:    d026        &.      BEQ      0x8001f3c ; I2C_WaitOnFlagUntilTimeout + 108
        0x08001eee:    f7fefc73    ..s.    BL       HAL_GetTick ; 0x80007d8
        0x08001ef2:    eba00109    ....    SUB      r1,r0,r9
        0x08001ef6:    4541        AE      CMP      r1,r8
        0x08001ef8:    d802        ..      BHI      0x8001f00 ; I2C_WaitOnFlagUntilTimeout + 48
        0x08001efa:    f1b80f00    ....    CMP      r8,#0
        0x08001efe:    d11d        ..      BNE      0x8001f3c ; I2C_WaitOnFlagUntilTimeout + 108
        0x08001f00:    6820         h      LDR      r0,[r4,#0]
        0x08001f02:    2e01        ..      CMP      r6,#1
        0x08001f04:    d016        ..      BEQ      0x8001f34 ; I2C_WaitOnFlagUntilTimeout + 100
        0x08001f06:    6980        .i      LDR      r0,[r0,#0x18]
        0x08001f08:    ea250000    %...    BIC      r0,r5,r0
        0x08001f0c:    0400        ..      LSLS     r0,r0,#16
        0x08001f0e:    0c00        ..      LSRS     r0,r0,#16
        0x08001f10:    d012        ..      BEQ      0x8001f38 ; I2C_WaitOnFlagUntilTimeout + 104
        0x08001f12:    2000        .       MOVS     r0,#0
        0x08001f14:    42b8        .B      CMP      r0,r7
        0x08001f16:    d111        ..      BNE      0x8001f3c ; I2C_WaitOnFlagUntilTimeout + 108
        0x08001f18:    2000        .       MOVS     r0,#0
        0x08001f1a:    f8440f30    D.0.    STR      r0,[r4,#0x30]!
        0x08001f1e:    2120         !      MOVS     r1,#0x20
        0x08001f20:    7361        as      STRB     r1,[r4,#0xd]
        0x08001f22:    73a0        .s      STRB     r0,[r4,#0xe]
        0x08001f24:    6921        !i      LDR      r1,[r4,#0x10]
        0x08001f26:    f0410120    A. .    ORR      r1,r1,#0x20
        0x08001f2a:    6121        !a      STR      r1,[r4,#0x10]
        0x08001f2c:    7320         s      STRB     r0,[r4,#0xc]
        0x08001f2e:    2001        .       MOVS     r0,#1
        0x08001f30:    e8bd87f0    ....    POP      {r4-r10,pc}
        0x08001f34:    6940        @i      LDR      r0,[r0,#0x14]
        0x08001f36:    e7e7        ..      B        0x8001f08 ; I2C_WaitOnFlagUntilTimeout + 56
        0x08001f38:    2001        .       MOVS     r0,#1
        0x08001f3a:    e7eb        ..      B        0x8001f14 ; I2C_WaitOnFlagUntilTimeout + 68
        0x08001f3c:    6820         h      LDR      r0,[r4,#0]
        0x08001f3e:    2e01        ..      CMP      r6,#1
        0x08001f40:    d00a        ..      BEQ      0x8001f58 ; I2C_WaitOnFlagUntilTimeout + 136
        0x08001f42:    6980        .i      LDR      r0,[r0,#0x18]
        0x08001f44:    ea250000    %...    BIC      r0,r5,r0
        0x08001f48:    0400        ..      LSLS     r0,r0,#16
        0x08001f4a:    0c00        ..      LSRS     r0,r0,#16
        0x08001f4c:    d006        ..      BEQ      0x8001f5c ; I2C_WaitOnFlagUntilTimeout + 140
        0x08001f4e:    2000        .       MOVS     r0,#0
        0x08001f50:    42b8        .B      CMP      r0,r7
        0x08001f52:    d0c9        ..      BEQ      0x8001ee8 ; I2C_WaitOnFlagUntilTimeout + 24
        0x08001f54:    2000        .       MOVS     r0,#0
        0x08001f56:    e7eb        ..      B        0x8001f30 ; I2C_WaitOnFlagUntilTimeout + 96
        0x08001f58:    6940        @i      LDR      r0,[r0,#0x14]
        0x08001f5a:    e7f3        ..      B        0x8001f44 ; I2C_WaitOnFlagUntilTimeout + 116
        0x08001f5c:    2001        .       MOVS     r0,#1
        0x08001f5e:    e7f7        ..      B        0x8001f50 ; I2C_WaitOnFlagUntilTimeout + 128
    i.I2C_WaitOnMasterAddressFlagUntilTimeout
    I2C_WaitOnMasterAddressFlagUntilTimeout
        0x08001f60:    e92d47f0    -..G    PUSH     {r4-r10,lr}
        0x08001f64:    4698        .F      MOV      r8,r3
        0x08001f66:    4616        .F      MOV      r6,r2
        0x08001f68:    460d        .F      MOV      r5,r1
        0x08001f6a:    4604        .F      MOV      r4,r0
        0x08001f6c:    f04f0900    O...    MOV      r9,#0
        0x08001f70:    f04f0a20    O. .    MOV      r10,#0x20
        0x08001f74:    f3c14707    ...G    UBFX     r7,r1,#16,#8
        0x08001f78:    e023        #.      B        0x8001fc2 ; I2C_WaitOnMasterAddressFlagUntilTimeout + 98
        0x08001f7a:    6820         h      LDR      r0,[r4,#0]
        0x08001f7c:    6940        @i      LDR      r0,[r0,#0x14]
        0x08001f7e:    43c0        .C      MVNS     r0,r0
        0x08001f80:    0540        @.      LSLS     r0,r0,#21
        0x08001f82:    d415        ..      BMI      0x8001fb0 ; I2C_WaitOnMasterAddressFlagUntilTimeout + 80
        0x08001f84:    6820         h      LDR      r0,[r4,#0]
        0x08001f86:    6801        .h      LDR      r1,[r0,#0]
        0x08001f88:    f4417100    A..q    ORR      r1,r1,#0x200
        0x08001f8c:    6001        .`      STR      r1,[r0,#0]
        0x08001f8e:    6821        !h      LDR      r1,[r4,#0]
        0x08001f90:    f46f6080    o..`    MVN      r0,#0x400
        0x08001f94:    6148        Ha      STR      r0,[r1,#0x14]
        0x08001f96:    f8c49030    ..0.    STR      r9,[r4,#0x30]
        0x08001f9a:    f884a03d    ..=.    STRB     r10,[r4,#0x3d]
        0x08001f9e:    f884903e    ..>.    STRB     r9,[r4,#0x3e]
        0x08001fa2:    6c21        !l      LDR      r1,[r4,#0x40]
        0x08001fa4:    f0410104    A...    ORR      r1,r1,#4
        0x08001fa8:    6421        !d      STR      r1,[r4,#0x40]
        0x08001faa:    f884903c    ..<.    STRB     r9,[r4,#0x3c]
        0x08001fae:    e021        !.      B        0x8001ff4 ; I2C_WaitOnMasterAddressFlagUntilTimeout + 148
        0x08001fb0:    1c70        p.      ADDS     r0,r6,#1
        0x08001fb2:    d006        ..      BEQ      0x8001fc2 ; I2C_WaitOnMasterAddressFlagUntilTimeout + 98
        0x08001fb4:    f7fefc10    ....    BL       HAL_GetTick ; 0x80007d8
        0x08001fb8:    eba00008    ....    SUB      r0,r0,r8
        0x08001fbc:    42b0        .B      CMP      r0,r6
        0x08001fbe:    d803        ..      BHI      0x8001fc8 ; I2C_WaitOnMasterAddressFlagUntilTimeout + 104
        0x08001fc0:    b116        ..      CBZ      r6,0x8001fc8 ; I2C_WaitOnMasterAddressFlagUntilTimeout + 104
        0x08001fc2:    2f01        ./      CMP      r7,#1
        0x08001fc4:    d01f        ..      BEQ      0x8002006 ; I2C_WaitOnMasterAddressFlagUntilTimeout + 166
        0x08001fc6:    e021        !.      B        0x800200c ; I2C_WaitOnMasterAddressFlagUntilTimeout + 172
        0x08001fc8:    6820         h      LDR      r0,[r4,#0]
        0x08001fca:    2f01        ./      CMP      r7,#1
        0x08001fcc:    d015        ..      BEQ      0x8001ffa ; I2C_WaitOnMasterAddressFlagUntilTimeout + 154
        0x08001fce:    6980        .i      LDR      r0,[r0,#0x18]
        0x08001fd0:    ea250000    %...    BIC      r0,r5,r0
        0x08001fd4:    0400        ..      LSLS     r0,r0,#16
        0x08001fd6:    0c00        ..      LSRS     r0,r0,#16
        0x08001fd8:    d018        ..      BEQ      0x800200c ; I2C_WaitOnMasterAddressFlagUntilTimeout + 172
        0x08001fda:    bf00        ..      NOP      
        0x08001fdc:    f8449f30    D.0.    STR      r9,[r4,#0x30]!
        0x08001fe0:    f884a00d    ....    STRB     r10,[r4,#0xd]
        0x08001fe4:    f884900e    ....    STRB     r9,[r4,#0xe]
        0x08001fe8:    6921        !i      LDR      r1,[r4,#0x10]
        0x08001fea:    f0410120    A. .    ORR      r1,r1,#0x20
        0x08001fee:    6121        !a      STR      r1,[r4,#0x10]
        0x08001ff0:    f884900c    ....    STRB     r9,[r4,#0xc]
        0x08001ff4:    2001        .       MOVS     r0,#1
        0x08001ff6:    e8bd87f0    ....    POP      {r4-r10,pc}
        0x08001ffa:    6940        @i      LDR      r0,[r0,#0x14]
        0x08001ffc:    ea250000    %...    BIC      r0,r5,r0
        0x08002000:    0400        ..      LSLS     r0,r0,#16
        0x08002002:    0c00        ..      LSRS     r0,r0,#16
        0x08002004:    d1ea        ..      BNE      0x8001fdc ; I2C_WaitOnMasterAddressFlagUntilTimeout + 124
        0x08002006:    6820         h      LDR      r0,[r4,#0]
        0x08002008:    6940        @i      LDR      r0,[r0,#0x14]
        0x0800200a:    e001        ..      B        0x8002010 ; I2C_WaitOnMasterAddressFlagUntilTimeout + 176
        0x0800200c:    6820         h      LDR      r0,[r4,#0]
        0x0800200e:    6980        .i      LDR      r0,[r0,#0x18]
        0x08002010:    ea250000    %...    BIC      r0,r5,r0
        0x08002014:    0400        ..      LSLS     r0,r0,#16
        0x08002016:    0c00        ..      LSRS     r0,r0,#16
        0x08002018:    d1af        ..      BNE      0x8001f7a ; I2C_WaitOnMasterAddressFlagUntilTimeout + 26
        0x0800201a:    e7ec        ..      B        0x8001ff6 ; I2C_WaitOnMasterAddressFlagUntilTimeout + 150
    i.I2C_WaitOnTXEFlagUntilTimeout
    I2C_WaitOnTXEFlagUntilTimeout
        0x0800201c:    b570        p.      PUSH     {r4-r6,lr}
        0x0800201e:    4616        .F      MOV      r6,r2
        0x08002020:    460d        .F      MOV      r5,r1
        0x08002022:    4604        .F      MOV      r4,r0
        0x08002024:    e01e        ..      B        0x8002064 ; I2C_WaitOnTXEFlagUntilTimeout + 72
        0x08002026:    4620         F      MOV      r0,r4
        0x08002028:    f7fffe6d    ..m.    BL       I2C_IsAcknowledgeFailed ; 0x8001d06
        0x0800202c:    b108        ..      CBZ      r0,0x8002032 ; I2C_WaitOnTXEFlagUntilTimeout + 22
        0x0800202e:    2001        .       MOVS     r0,#1
        0x08002030:    bd70        p.      POP      {r4-r6,pc}
        0x08002032:    1c68        h.      ADDS     r0,r5,#1
        0x08002034:    d016        ..      BEQ      0x8002064 ; I2C_WaitOnTXEFlagUntilTimeout + 72
        0x08002036:    f7fefbcf    ....    BL       HAL_GetTick ; 0x80007d8
        0x0800203a:    1b80        ..      SUBS     r0,r0,r6
        0x0800203c:    42a8        .B      CMP      r0,r5
        0x0800203e:    d800        ..      BHI      0x8002042 ; I2C_WaitOnTXEFlagUntilTimeout + 38
        0x08002040:    b985        ..      CBNZ     r5,0x8002064 ; I2C_WaitOnTXEFlagUntilTimeout + 72
        0x08002042:    6820         h      LDR      r0,[r4,#0]
        0x08002044:    6940        @i      LDR      r0,[r0,#0x14]
        0x08002046:    43c0        .C      MVNS     r0,r0
        0x08002048:    0600        ..      LSLS     r0,r0,#24
        0x0800204a:    d50b        ..      BPL      0x8002064 ; I2C_WaitOnTXEFlagUntilTimeout + 72
        0x0800204c:    2000        .       MOVS     r0,#0
        0x0800204e:    f8440f30    D.0.    STR      r0,[r4,#0x30]!
        0x08002052:    2120         !      MOVS     r1,#0x20
        0x08002054:    7361        as      STRB     r1,[r4,#0xd]
        0x08002056:    73a0        .s      STRB     r0,[r4,#0xe]
        0x08002058:    6921        !i      LDR      r1,[r4,#0x10]
        0x0800205a:    f0410120    A. .    ORR      r1,r1,#0x20
        0x0800205e:    6121        !a      STR      r1,[r4,#0x10]
        0x08002060:    7320         s      STRB     r0,[r4,#0xc]
        0x08002062:    e7e4        ..      B        0x800202e ; I2C_WaitOnTXEFlagUntilTimeout + 18
        0x08002064:    6820         h      LDR      r0,[r4,#0]
        0x08002066:    6940        @i      LDR      r0,[r0,#0x14]
        0x08002068:    43c0        .C      MVNS     r0,r0
        0x0800206a:    0600        ..      LSLS     r0,r0,#24
        0x0800206c:    d4db        ..      BMI      0x8002026 ; I2C_WaitOnTXEFlagUntilTimeout + 10
        0x0800206e:    2000        .       MOVS     r0,#0
        0x08002070:    bd70        p.      POP      {r4-r6,pc}
        0x08002072:    0000        ..      MOVS     r0,r0
    i.IRReceiver_IRQTimes_Parse
    IRReceiver_IRQTimes_Parse
        0x08002074:    e92d4ff8    -..O    PUSH     {r3-r11,lr}
        0x08002078:    f8df90fc    ....    LDR      r9,[pc,#252] ; [0x8002178] = 0x20001f50
        0x0800207c:    2200        ."      MOVS     r2,#0
        0x0800207e:    4648        HF      MOV      r0,r9
        0x08002080:    f8dfc0f8    ....    LDR      r12,[pc,#248] ; [0x800217c] = 0x7a1200
        0x08002084:    e9d06102    ...a    LDRD     r6,r1,[r0,#8]
        0x08002088:    e9d94000    ...@    LDRD     r4,r0,[r9,#0]
        0x0800208c:    460b        .F      MOV      r3,r1
        0x0800208e:    1b34        4.      SUBS     r4,r6,r4
        0x08002090:    eb610100    a...    SBC      r1,r1,r0
        0x08002094:    1e50        P.      SUBS     r0,r2,#1
        0x08002096:    ebb40c0c    ....    SUBS     r12,r4,r12
        0x0800209a:    4615        .F      MOV      r5,r2
        0x0800209c:    4617        .F      MOV      r7,r2
        0x0800209e:    f1710c00    q...    SBCS     r12,r1,#0
        0x080020a2:    d35e        ^.      BCC      0x8002162 ; IRReceiver_IRQTimes_Parse + 238
        0x080020a4:    f8df80d8    ....    LDR      r8,[pc,#216] ; [0x8002180] = 0x989680
        0x080020a8:    f04f0c00    O...    MOV      r12,#0
        0x080020ac:    ebb80404    ....    SUBS     r4,r8,r4
        0x080020b0:    eb7c0c01    |...    SBCS     r12,r12,r1
        0x080020b4:    d355        U.      BCC      0x8002162 ; IRReceiver_IRQTimes_Parse + 238
        0x080020b6:    464c        LF      MOV      r4,r9
        0x080020b8:    e9d4c104    ....    LDRD     r12,r1,[r4,#0x10]
        0x080020bc:    ebbc0606    ....    SUBS     r6,r12,r6
        0x080020c0:    eb610103    a...    SBC      r1,r1,r3
        0x080020c4:    4b2f        /K      LDR      r3,[pc,#188] ; [0x8002184] = 0x3567e0
        0x080020c6:    1af3        ..      SUBS     r3,r6,r3
        0x080020c8:    f1710300    q...    SBCS     r3,r1,#0
        0x080020cc:    d349        I.      BCC      0x8002162 ; IRReceiver_IRQTimes_Parse + 238
        0x080020ce:    f8dfc0b8    ....    LDR      r12,[pc,#184] ; [0x8002188] = 0x3473bc0
        0x080020d2:    2300        .#      MOVS     r3,#0
        0x080020d4:    ebbc0606    ....    SUBS     r6,r12,r6
        0x080020d8:    418b        .A      SBCS     r3,r3,r1
        0x080020da:    d342        B.      BCC      0x8002162 ; IRReceiver_IRQTimes_Parse + 238
        0x080020dc:    2300        .#      MOVS     r3,#0
        0x080020de:    f04f0903    O...    MOV      r9,#3
        0x080020e2:    46ea        .F      MOV      r10,sp
        0x080020e4:    eb090843    ..C.    ADD      r8,r9,r3,LSL #1
        0x080020e8:    f1080c01    ....    ADD      r12,r8,#1
        0x080020ec:    eb0401cc    ....    ADD      r1,r4,r12,LSL #3
        0x080020f0:    eb040cc8    ....    ADD      r12,r4,r8,LSL #3
        0x080020f4:    e9d16100    ...a    LDRD     r6,r1,[r1,#0]
        0x080020f8:    e9dc8c00    ....    LDRD     r8,r12,[r12,#0]
        0x080020fc:    ebb60608    ....    SUBS     r6,r6,r8
        0x08002100:    eb61010c    a...    SBC      r1,r1,r12
        0x08002104:    0652        R.      LSLS     r2,r2,#25
        0x08002106:    f8df8084    ....    LDR      r8,[pc,#132] ; [0x800218c] = 0xf4240
        0x0800210a:    0e12        ..      LSRS     r2,r2,#24
        0x0800210c:    1c6d        m.      ADDS     r5,r5,#1
        0x0800210e:    f04f0c00    O...    MOV      r12,#0
        0x08002112:    ebb80606    ....    SUBS     r6,r8,r6
        0x08002116:    eb7c0c01    |...    SBCS     r12,r12,r1
        0x0800211a:    d201        ..      BCS      0x8002120 ; IRReceiver_IRQTimes_Parse + 172
        0x0800211c:    f0420201    B...    ORR      r2,r2,#1
        0x08002120:    2d08        .-      CMP      r5,#8
        0x08002122:    d104        ..      BNE      0x800212e ; IRReceiver_IRQTimes_Parse + 186
        0x08002124:    f80a2007    ...     STRB     r2,[r10,r7]
        0x08002128:    2200        ."      MOVS     r2,#0
        0x0800212a:    4615        .F      MOV      r5,r2
        0x0800212c:    1c7f        ..      ADDS     r7,r7,#1
        0x0800212e:    1c5b        [.      ADDS     r3,r3,#1
        0x08002130:    2b20         +      CMP      r3,#0x20
        0x08002132:    dbd7        ..      BLT      0x80020e4 ; IRReceiver_IRQTimes_Parse + 112
        0x08002134:    f89d1001    ....    LDRB     r1,[sp,#1]
        0x08002138:    43c9        .C      MVNS     r1,r1
        0x0800213a:    b2cb        ..      UXTB     r3,r1
        0x0800213c:    f88d3001    ...0    STRB     r3,[sp,#1]
        0x08002140:    f89d1003    ....    LDRB     r1,[sp,#3]
        0x08002144:    43c9        .C      MVNS     r1,r1
        0x08002146:    b2ca        ..      UXTB     r2,r1
        0x08002148:    f88d2003    ...     STRB     r2,[sp,#3]
        0x0800214c:    f89d1000    ....    LDRB     r1,[sp,#0]
        0x08002150:    4299        .B      CMP      r1,r3
        0x08002152:    d103        ..      BNE      0x800215c ; IRReceiver_IRQTimes_Parse + 232
        0x08002154:    f89d3002    ...0    LDRB     r3,[sp,#2]
        0x08002158:    4293        .B      CMP      r3,r2
        0x0800215a:    d004        ..      BEQ      0x8002166 ; IRReceiver_IRQTimes_Parse + 242
        0x0800215c:    4a0c        .J      LDR      r2,[pc,#48] ; [0x8002190] = 0x20000098
        0x0800215e:    2100        .!      MOVS     r1,#0
        0x08002160:    6011        .`      STR      r1,[r2,#0]
        0x08002162:    e8bd8ff8    ....    POP      {r3-r11,pc}
        0x08002166:    4608        .F      MOV      r0,r1
        0x08002168:    f000fc94    ....    BL       PutKeyToBuf ; 0x8002a94
        0x0800216c:    f89d0002    ....    LDRB     r0,[sp,#2]
        0x08002170:    f000fc90    ....    BL       PutKeyToBuf ; 0x8002a94
        0x08002174:    2000        .       MOVS     r0,#0
        0x08002176:    e7f4        ..      B        0x8002162 ; IRReceiver_IRQTimes_Parse + 238
    $d
        0x08002178:    20001f50    P..     DCD    536878928
        0x0800217c:    007a1200    ..z.    DCD    8000000
        0x08002180:    00989680    ....    DCD    10000000
        0x08002184:    003567e0    .g5.    DCD    3500000
        0x08002188:    03473bc0    .;G.    DCD    55000000
        0x0800218c:    000f4240    @B..    DCD    1000000
        0x08002190:    20000098    ...     DCD    536871064
    $t
    i.IRReceiver_IRQ_Callback
    IRReceiver_IRQ_Callback
        0x08002194:    e92d41f0    -..A    PUSH     {r4-r8,lr}
        0x08002198:    f001fbac    ....    BL       system_get_ns ; 0x80038f4
        0x0800219c:    4c25        %L      LDR      r4,[pc,#148] ; [0x8002234] = 0x20000098
        0x0800219e:    4f26        &O      LDR      r7,[pc,#152] ; [0x8002238] = 0x5f5e100
        0x080021a0:    e9d42304    ...#    LDRD     r2,r3,[r4,#0x10]
        0x080021a4:    1a86        ..      SUBS     r6,r0,r2
        0x080021a6:    eb610203    a...    SBC      r2,r1,r3
        0x080021aa:    2300        .#      MOVS     r3,#0
        0x080021ac:    461d        .F      MOV      r5,r3
        0x080021ae:    1bbe        ..      SUBS     r6,r7,r6
        0x080021b0:    4193        .A      SBCS     r3,r3,r2
        0x080021b2:    d200        ..      BCS      0x80021b6 ; IRReceiver_IRQ_Callback + 34
        0x080021b4:    6025        %`      STR      r5,[r4,#0]
        0x080021b6:    e9c40104    ....    STRD     r0,r1,[r4,#0x10]
        0x080021ba:    4a20         J      LDR      r2,[pc,#128] ; [0x800223c] = 0x20001f50
        0x080021bc:    6823        #h      LDR      r3,[r4,#0]
        0x080021be:    eb0206c3    ....    ADD      r6,r2,r3,LSL #3
        0x080021c2:    1c5b        [.      ADDS     r3,r3,#1
        0x080021c4:    e9c60100    ....    STRD     r0,r1,[r6,#0]
        0x080021c8:    6023        #`      STR      r3,[r4,#0]
        0x080021ca:    2b04        .+      CMP      r3,#4
        0x080021cc:    d006        ..      BEQ      0x80021dc ; IRReceiver_IRQ_Callback + 72
        0x080021ce:    2b44        D+      CMP      r3,#0x44
        0x080021d0:    d102        ..      BNE      0x80021d8 ; IRReceiver_IRQ_Callback + 68
        0x080021d2:    f7ffff4f    ..O.    BL       IRReceiver_IRQTimes_Parse ; 0x8002074
        0x080021d6:    6025        %`      STR      r5,[r4,#0]
        0x080021d8:    e8bd81f0    ....    POP      {r4-r8,pc}
        0x080021dc:    e9d26002    ...`    LDRD     r6,r0,[r2,#8]
        0x080021e0:    e9d23700    ...7    LDRD     r3,r7,[r2,#0]
        0x080021e4:    4601        .F      MOV      r1,r0
        0x080021e6:    1af3        ..      SUBS     r3,r6,r3
        0x080021e8:    eb600007    `...    SBC      r0,r0,r7
        0x080021ec:    4f14        .O      LDR      r7,[pc,#80] ; [0x8002240] = 0x7a1200
        0x080021ee:    1bdf        ..      SUBS     r7,r3,r7
        0x080021f0:    f1700700    p...    SBCS     r7,r0,#0
        0x080021f4:    d3f0        ..      BCC      0x80021d8 ; IRReceiver_IRQ_Callback + 68
        0x080021f6:    f8dfc04c    ..L.    LDR      r12,[pc,#76] ; [0x8002244] = 0x989680
        0x080021fa:    2700        .'      MOVS     r7,#0
        0x080021fc:    ebbc0303    ....    SUBS     r3,r12,r3
        0x08002200:    4187        .A      SBCS     r7,r7,r0
        0x08002202:    d3e9        ..      BCC      0x80021d8 ; IRReceiver_IRQ_Callback + 68
        0x08002204:    e9d20204    ....    LDRD     r0,r2,[r2,#0x10]
        0x08002208:    1b80        ..      SUBS     r0,r0,r6
        0x0800220a:    eb620201    b...    SBC      r2,r2,r1
        0x0800220e:    490e        .I      LDR      r1,[pc,#56] ; [0x8002248] = 0x1e8480
        0x08002210:    1a41        A.      SUBS     r1,r0,r1
        0x08002212:    f1720100    r...    SBCS     r1,r2,#0
        0x08002216:    d3df        ..      BCC      0x80021d8 ; IRReceiver_IRQ_Callback + 68
        0x08002218:    ea4f03ac    O...    ASR      r3,r12,#2
        0x0800221c:    2100        .!      MOVS     r1,#0
        0x0800221e:    1a18        ..      SUBS     r0,r3,r0
        0x08002220:    4191        .A      SBCS     r1,r1,r2
        0x08002222:    d3d9        ..      BCC      0x80021d8 ; IRReceiver_IRQ_Callback + 68
        0x08002224:    2000        .       MOVS     r0,#0
        0x08002226:    f000fc35    ..5.    BL       PutKeyToBuf ; 0x8002a94
        0x0800222a:    2000        .       MOVS     r0,#0
        0x0800222c:    f000fc32    ..2.    BL       PutKeyToBuf ; 0x8002a94
        0x08002230:    e7d1        ..      B        0x80021d6 ; IRReceiver_IRQ_Callback + 66
    $d
        0x08002232:    0000        ..      DCW    0
        0x08002234:    20000098    ...     DCD    536871064
        0x08002238:    05f5e100    ....    DCD    100000000
        0x0800223c:    20001f50    P..     DCD    536878928
        0x08002240:    007a1200    ..z.    DCD    8000000
        0x08002244:    00989680    ....    DCD    10000000
        0x08002248:    001e8480    ....    DCD    2000000
    $t
    i.LCD_Clear
    LCD_Clear
        0x0800224c:    f000bac5    ....    B.W      OLED_Clear ; 0x80027da
    i.LCD_Init
    LCD_Init
        0x08002250:    f000bad8    ....    B.W      OLED_Init ; 0x8002804
    i.LCD_Test
    LCD_Test
        0x08002254:    f000bbd2    ....    B.W      OLED_Test ; 0x80029fc
    i.Led_Control
    Led_Control
        0x08002258:    b510        ..      PUSH     {r4,lr}
        0x0800225a:    4806        .H      LDR      r0,[pc,#24] ; [0x8002274] = 0x40011000
        0x0800225c:    f44f5300    O..S    MOV      r3,#0x2000
        0x08002260:    b109        ..      CBZ      r1,0x8002266 ; Led_Control + 14
        0x08002262:    2200        ."      MOVS     r2,#0
        0x08002264:    e000        ..      B        0x8002268 ; Led_Control + 16
        0x08002266:    2201        ."      MOVS     r2,#1
        0x08002268:    4619        .F      MOV      r1,r3
        0x0800226a:    f7fefab0    ....    BL       HAL_GPIO_WritePin ; 0x80007ce
        0x0800226e:    2000        .       MOVS     r0,#0
        0x08002270:    bd10        ..      POP      {r4,pc}
    $d
        0x08002272:    0000        ..      DCW    0
        0x08002274:    40011000    ...@    DCD    1073811456
    $t
    i.Led_Init
    Led_Init
        0x08002278:    b570        p.      PUSH     {r4-r6,lr}
        0x0800227a:    b086        ..      SUB      sp,sp,#0x18
        0x0800227c:    2400        .$      MOVS     r4,#0
        0x0800227e:    4811        .H      LDR      r0,[pc,#68] ; [0x80022c4] = 0x40021000
        0x08002280:    9400        ..      STR      r4,[sp,#0]
        0x08002282:    9401        ..      STR      r4,[sp,#4]
        0x08002284:    9402        ..      STR      r4,[sp,#8]
        0x08002286:    9403        ..      STR      r4,[sp,#0xc]
        0x08002288:    6981        .i      LDR      r1,[r0,#0x18]
        0x0800228a:    f0410110    A...    ORR      r1,r1,#0x10
        0x0800228e:    6181        .a      STR      r1,[r0,#0x18]
        0x08002290:    6980        .i      LDR      r0,[r0,#0x18]
        0x08002292:    4e0d        .N      LDR      r6,[pc,#52] ; [0x80022c8] = 0x40011000
        0x08002294:    f0000010    ....    AND      r0,r0,#0x10
        0x08002298:    f44f5500    O..U    MOV      r5,#0x2000
        0x0800229c:    9004        ..      STR      r0,[sp,#0x10]
        0x0800229e:    4622        "F      MOV      r2,r4
        0x080022a0:    4629        )F      MOV      r1,r5
        0x080022a2:    4630        0F      MOV      r0,r6
        0x080022a4:    f7fefa93    ....    BL       HAL_GPIO_WritePin ; 0x80007ce
        0x080022a8:    2001        .       MOVS     r0,#1
        0x080022aa:    9500        ..      STR      r5,[sp,#0]
        0x080022ac:    e9cd0401    ....    STRD     r0,r4,[sp,#4]
        0x080022b0:    2002        .       MOVS     r0,#2
        0x080022b2:    9003        ..      STR      r0,[sp,#0xc]
        0x080022b4:    4669        iF      MOV      r1,sp
        0x080022b6:    4630        0F      MOV      r0,r6
        0x080022b8:    f7fef994    ....    BL       HAL_GPIO_Init ; 0x80005e4
        0x080022bc:    b006        ..      ADD      sp,sp,#0x18
        0x080022be:    2000        .       MOVS     r0,#0
        0x080022c0:    bd70        p.      POP      {r4-r6,pc}
    $d
        0x080022c2:    0000        ..      DCW    0
        0x080022c4:    40021000    ...@    DCD    1073876992
        0x080022c8:    40011000    ...@    DCD    1073811456
    $t
    i.Led_Test
    Led_Test
        0x080022cc:    f7ffffd4    ....    BL       Led_Init ; 0x8002278
        0x080022d0:    f44f74fa    O..t    MOV      r4,#0x1f4
        0x080022d4:    2101        .!      MOVS     r1,#1
        0x080022d6:    4608        .F      MOV      r0,r1
        0x080022d8:    f7ffffbe    ....    BL       Led_Control ; 0x8002258
        0x080022dc:    4620         F      MOV      r0,r4
        0x080022de:    f000fe4d    ..M.    BL       mdelay ; 0x8002f7c
        0x080022e2:    2100        .!      MOVS     r1,#0
        0x080022e4:    2001        .       MOVS     r0,#1
        0x080022e6:    f7ffffb7    ....    BL       Led_Control ; 0x8002258
        0x080022ea:    4620         F      MOV      r0,r4
        0x080022ec:    f000fe46    ..F.    BL       mdelay ; 0x8002f7c
        0x080022f0:    e7f0        ..      B        0x80022d4 ; Led_Test + 8
        0x080022f2:    0000        ..      MOVS     r0,r0
    i.MX_ADC1_Init
    MX_ADC1_Init
        0x080022f4:    b53e        >.      PUSH     {r1-r5,lr}
        0x080022f6:    2400        .$      MOVS     r4,#0
        0x080022f8:    4811        .H      LDR      r0,[pc,#68] ; [0x8002340] = 0x200000c8
        0x080022fa:    9400        ..      STR      r4,[sp,#0]
        0x080022fc:    9401        ..      STR      r4,[sp,#4]
        0x080022fe:    9402        ..      STR      r4,[sp,#8]
        0x08002300:    490e        .I      LDR      r1,[pc,#56] ; [0x800233c] = 0x40012400
        0x08002302:    6084        .`      STR      r4,[r0,#8]
        0x08002304:    6001        .`      STR      r1,[r0,#0]
        0x08002306:    7304        .s      STRB     r4,[r0,#0xc]
        0x08002308:    7504        .u      STRB     r4,[r0,#0x14]
        0x0800230a:    2501        .%      MOVS     r5,#1
        0x0800230c:    6105        .a      STR      r5,[r0,#0x10]
        0x0800230e:    f44f2160    O.`!    MOV      r1,#0xe0000
        0x08002312:    6044        D`      STR      r4,[r0,#4]
        0x08002314:    61c1        .a      STR      r1,[r0,#0x1c]
        0x08002316:    f7fef893    ....    BL       HAL_ADC_Init ; 0x8000440
        0x0800231a:    b108        ..      CBZ      r0,0x8002320 ; MX_ADC1_Init + 44
        0x0800231c:    f7fef810    ....    BL       Error_Handler ; 0x8000340
        0x08002320:    2003        .       MOVS     r0,#3
        0x08002322:    e9cd0500    ....    STRD     r0,r5,[sp,#0]
        0x08002326:    4669        iF      MOV      r1,sp
        0x08002328:    9402        ..      STR      r4,[sp,#8]
        0x0800232a:    4805        .H      LDR      r0,[pc,#20] ; [0x8002340] = 0x200000c8
        0x0800232c:    f7fef80a    ....    BL       HAL_ADC_ConfigChannel ; 0x8000344
        0x08002330:    2800        .(      CMP      r0,#0
        0x08002332:    d001        ..      BEQ      0x8002338 ; MX_ADC1_Init + 68
        0x08002334:    f7fef804    ....    BL       Error_Handler ; 0x8000340
        0x08002338:    bd3e        >.      POP      {r1-r5,pc}
    $d
        0x0800233a:    0000        ..      DCW    0
        0x0800233c:    40012400    .$.@    DCD    1073816576
        0x08002340:    200000c8    ...     DCD    536871112
    $t
    i.MX_FREERTOS_Init
    MX_FREERTOS_Init
        0x08002344:    b51c        ..      PUSH     {r2-r4,lr}
        0x08002346:    4a09        .J      LDR      r2,[pc,#36] ; [0x800236c] = 0x80046cc
        0x08002348:    2100        .!      MOVS     r1,#0
        0x0800234a:    4809        .H      LDR      r0,[pc,#36] ; [0x8002370] = 0x8002b2d
        0x0800234c:    f000fe60    ..`.    BL       osThreadNew ; 0x8003010
        0x08002350:    4908        .I      LDR      r1,[pc,#32] ; [0x8002374] = 0x20000000
        0x08002352:    2280        ."      MOVS     r2,#0x80
        0x08002354:    6008        .`      STR      r0,[r1,#0]
        0x08002356:    2100        .!      MOVS     r1,#0
        0x08002358:    2018        .       MOVS     r0,#0x18
        0x0800235a:    e9cd0100    ....    STRD     r0,r1,[sp,#0]
        0x0800235e:    460b        .F      MOV      r3,r1
        0x08002360:    a105        ..      ADR      r1,{pc}+0x18 ; 0x8002378
        0x08002362:    4808        .H      LDR      r0,[pc,#32] ; [0x8002384] = 0x80027d3
        0x08002364:    f001ffa4    ....    BL       xTaskCreate ; 0x80042b0
        0x08002368:    bd1c        ..      POP      {r2-r4,pc}
    $d
        0x0800236a:    0000        ..      DCW    0
        0x0800236c:    080046cc    .F..    DCD    134235852
        0x08002370:    08002b2d    -+..    DCD    134228781
        0x08002374:    20000000    ...     DCD    536870912
        0x08002378:    6966796d    myfi    DCD    1768323437
        0x0800237c:    74747372    rstt    DCD    1953788786
        0x08002380:    006b7361    ask.    DCD    7041889
        0x08002384:    080027d3    .'..    DCD    134227923
    $t
    i.MX_GPIO_Init
    MX_GPIO_Init
        0x08002388:    e92d47f0    -..G    PUSH     {r4-r10,lr}
        0x0800238c:    b086        ..      SUB      sp,sp,#0x18
        0x0800238e:    2400        .$      MOVS     r4,#0
        0x08002390:    484b        KH      LDR      r0,[pc,#300] ; [0x80024c0] = 0x40021000
        0x08002392:    9400        ..      STR      r4,[sp,#0]
        0x08002394:    9401        ..      STR      r4,[sp,#4]
        0x08002396:    9402        ..      STR      r4,[sp,#8]
        0x08002398:    9403        ..      STR      r4,[sp,#0xc]
        0x0800239a:    6981        .i      LDR      r1,[r0,#0x18]
        0x0800239c:    f0410110    A...    ORR      r1,r1,#0x10
        0x080023a0:    6181        .a      STR      r1,[r0,#0x18]
        0x080023a2:    6981        .i      LDR      r1,[r0,#0x18]
        0x080023a4:    f0010110    ....    AND      r1,r1,#0x10
        0x080023a8:    9104        ..      STR      r1,[sp,#0x10]
        0x080023aa:    6981        .i      LDR      r1,[r0,#0x18]
        0x080023ac:    f0410120    A. .    ORR      r1,r1,#0x20
        0x080023b0:    6181        .a      STR      r1,[r0,#0x18]
        0x080023b2:    6981        .i      LDR      r1,[r0,#0x18]
        0x080023b4:    f0010120    .. .    AND      r1,r1,#0x20
        0x080023b8:    9104        ..      STR      r1,[sp,#0x10]
        0x080023ba:    6981        .i      LDR      r1,[r0,#0x18]
        0x080023bc:    f0410104    A...    ORR      r1,r1,#4
        0x080023c0:    6181        .a      STR      r1,[r0,#0x18]
        0x080023c2:    6981        .i      LDR      r1,[r0,#0x18]
        0x080023c4:    f0010104    ....    AND      r1,r1,#4
        0x080023c8:    9104        ..      STR      r1,[sp,#0x10]
        0x080023ca:    6981        .i      LDR      r1,[r0,#0x18]
        0x080023cc:    f0410108    A...    ORR      r1,r1,#8
        0x080023d0:    6181        .a      STR      r1,[r0,#0x18]
        0x080023d2:    6980        .i      LDR      r0,[r0,#0x18]
        0x080023d4:    4f3b        ;O      LDR      r7,[pc,#236] ; [0x80024c4] = 0x40011000
        0x080023d6:    f0000008    ....    AND      r0,r0,#8
        0x080023da:    f44f5500    O..U    MOV      r5,#0x2000
        0x080023de:    9004        ..      STR      r0,[sp,#0x10]
        0x080023e0:    2200        ."      MOVS     r2,#0
        0x080023e2:    4629        )F      MOV      r1,r5
        0x080023e4:    4638        8F      MOV      r0,r7
        0x080023e6:    f7fef9f2    ....    BL       HAL_GPIO_WritePin ; 0x80007ce
        0x080023ea:    f8df90dc    ....    LDR      r9,[pc,#220] ; [0x80024c8] = 0x40010800
        0x080023ee:    2200        ."      MOVS     r2,#0
        0x080023f0:    2113        .!      MOVS     r1,#0x13
        0x080023f2:    4648        HF      MOV      r0,r9
        0x080023f4:    f7fef9eb    ....    BL       HAL_GPIO_WritePin ; 0x80007ce
        0x080023f8:    f8dfa0d0    ....    LDR      r10,[pc,#208] ; [0x80024cc] = 0x40010c00
        0x080023fc:    f44f4802    O..H    MOV      r8,#0x8200
        0x08002400:    2200        ."      MOVS     r2,#0
        0x08002402:    4641        AF      MOV      r1,r8
        0x08002404:    4650        PF      MOV      r0,r10
        0x08002406:    f7fef9e2    ....    BL       HAL_GPIO_WritePin ; 0x80007ce
        0x0800240a:    9500        ..      STR      r5,[sp,#0]
        0x0800240c:    2602        .&      MOVS     r6,#2
        0x0800240e:    2501        .%      MOVS     r5,#1
        0x08002410:    9603        ..      STR      r6,[sp,#0xc]
        0x08002412:    e9cd5401    ...T    STRD     r5,r4,[sp,#4]
        0x08002416:    4669        iF      MOV      r1,sp
        0x08002418:    4638        8F      MOV      r0,r7
        0x0800241a:    f7fef8e3    ....    BL       HAL_GPIO_Init ; 0x80005e4
        0x0800241e:    2711        .'      MOVS     r7,#0x11
        0x08002420:    9700        ..      STR      r7,[sp,#0]
        0x08002422:    9603        ..      STR      r6,[sp,#0xc]
        0x08002424:    e9cd5401    ...T    STRD     r5,r4,[sp,#4]
        0x08002428:    4669        iF      MOV      r1,sp
        0x0800242a:    4648        HF      MOV      r0,r9
        0x0800242c:    f7fef8da    ....    BL       HAL_GPIO_Init ; 0x80005e4
        0x08002430:    e9cd5602    ...V    STRD     r5,r6,[sp,#8]
        0x08002434:    e9cd6700    ...g    STRD     r6,r7,[sp,#0]
        0x08002438:    4669        iF      MOV      r1,sp
        0x0800243a:    4648        HF      MOV      r0,r9
        0x0800243c:    f7fef8d2    ....    BL       HAL_GPIO_Init ; 0x80005e4
        0x08002440:    2003        .       MOVS     r0,#3
        0x08002442:    e88d0031    ..1.    STM      sp,{r0,r4,r5}
        0x08002446:    4669        iF      MOV      r1,sp
        0x08002448:    4650        PF      MOV      r0,r10
        0x0800244a:    f7fef8cb    ....    BL       HAL_GPIO_Init ; 0x80005e4
        0x0800244e:    02a8        ..      LSLS     r0,r5,#10
        0x08002450:    9000        ..      STR      r0,[sp,#0]
        0x08002452:    481f        .H      LDR      r0,[pc,#124] ; [0x80024d0] = 0x10310000
        0x08002454:    e9cd0501    ....    STRD     r0,r5,[sp,#4]
        0x08002458:    4669        iF      MOV      r1,sp
        0x0800245a:    4650        PF      MOV      r0,r10
        0x0800245c:    f7fef8c2    ....    BL       HAL_GPIO_Init ; 0x80005e4
        0x08002460:    4f1c        .O      LDR      r7,[pc,#112] ; [0x80024d4] = 0x10110000
        0x08002462:    f44f6002    O..`    MOV      r0,#0x820
        0x08002466:    e9cd0700    ....    STRD     r0,r7,[sp,#0]
        0x0800246a:    4669        iF      MOV      r1,sp
        0x0800246c:    9502        ..      STR      r5,[sp,#8]
        0x0800246e:    4650        PF      MOV      r0,r10
        0x08002470:    f7fef8b8    ....    BL       HAL_GPIO_Init ; 0x80005e4
        0x08002474:    0328        (.      LSLS     r0,r5,#12
        0x08002476:    e9cd0700    ....    STRD     r0,r7,[sp,#0]
        0x0800247a:    4669        iF      MOV      r1,sp
        0x0800247c:    9402        ..      STR      r4,[sp,#8]
        0x0800247e:    4650        PF      MOV      r0,r10
        0x08002480:    f7fef8b0    ....    BL       HAL_GPIO_Init ; 0x80005e4
        0x08002484:    f44f4082    O..@    MOV      r0,#0x4100
        0x08002488:    e9cd0400    ....    STRD     r0,r4,[sp,#0]
        0x0800248c:    4669        iF      MOV      r1,sp
        0x0800248e:    4650        PF      MOV      r0,r10
        0x08002490:    9402        ..      STR      r4,[sp,#8]
        0x08002492:    f7fef8a7    ....    BL       HAL_GPIO_Init ; 0x80005e4
        0x08002496:    f8cd8000    ....    STR      r8,[sp,#0]
        0x0800249a:    9603        ..      STR      r6,[sp,#0xc]
        0x0800249c:    e9cd5401    ...T    STRD     r5,r4,[sp,#4]
        0x080024a0:    4669        iF      MOV      r1,sp
        0x080024a2:    4650        PF      MOV      r0,r10
        0x080024a4:    f7fef89e    ....    BL       HAL_GPIO_Init ; 0x80005e4
        0x080024a8:    2200        ."      MOVS     r2,#0
        0x080024aa:    2105        .!      MOVS     r1,#5
        0x080024ac:    2028        (       MOVS     r0,#0x28
        0x080024ae:    f7fefc51    ..Q.    BL       HAL_NVIC_SetPriority ; 0x8000d54
        0x080024b2:    2028        (       MOVS     r0,#0x28
        0x080024b4:    f7fefc40    ..@.    BL       HAL_NVIC_EnableIRQ ; 0x8000d38
        0x080024b8:    b006        ..      ADD      sp,sp,#0x18
        0x080024ba:    e8bd87f0    ....    POP      {r4-r10,pc}
    $d
        0x080024be:    0000        ..      DCW    0
        0x080024c0:    40021000    ...@    DCD    1073876992
        0x080024c4:    40011000    ...@    DCD    1073811456
        0x080024c8:    40010800    ...@    DCD    1073809408
        0x080024cc:    40010c00    ...@    DCD    1073810432
        0x080024d0:    10310000    ..1.    DCD    271646720
        0x080024d4:    10110000    ....    DCD    269549568
    $t
    i.MX_I2C1_Init
    MX_I2C1_Init
        0x080024d8:    480d        .H      LDR      r0,[pc,#52] ; [0x8002510] = 0x200000f8
        0x080024da:    b510        ..      PUSH     {r4,lr}
        0x080024dc:    490b        .I      LDR      r1,[pc,#44] ; [0x800250c] = 0x40005400
        0x080024de:    6001        .`      STR      r1,[r0,#0]
        0x080024e0:    490c        .I      LDR      r1,[pc,#48] ; [0x8002514] = 0x186a0
        0x080024e2:    6041        A`      STR      r1,[r0,#4]
        0x080024e4:    2100        .!      MOVS     r1,#0
        0x080024e6:    f44f4280    O..B    MOV      r2,#0x4000
        0x080024ea:    6081        .`      STR      r1,[r0,#8]
        0x080024ec:    e9c01203    ....    STRD     r1,r2,[r0,#0xc]
        0x080024f0:    6141        Aa      STR      r1,[r0,#0x14]
        0x080024f2:    6181        .a      STR      r1,[r0,#0x18]
        0x080024f4:    61c1        .a      STR      r1,[r0,#0x1c]
        0x080024f6:    6201        .b      STR      r1,[r0,#0x20]
        0x080024f8:    f7fef974    ..t.    BL       HAL_I2C_Init ; 0x80007e4
        0x080024fc:    2800        .(      CMP      r0,#0
        0x080024fe:    d003        ..      BEQ      0x8002508 ; MX_I2C1_Init + 48
        0x08002500:    e8bd4010    ...@    POP      {r4,lr}
        0x08002504:    f7fdbf1c    ....    B        Error_Handler ; 0x8000340
        0x08002508:    bd10        ..      POP      {r4,pc}
    $d
        0x0800250a:    0000        ..      DCW    0
        0x0800250c:    40005400    .T.@    DCD    1073763328
        0x08002510:    200000f8    ...     DCD    536871160
        0x08002514:    000186a0    ....    DCD    100000
    $t
    i.MX_SPI1_Init
    MX_SPI1_Init
        0x08002518:    4810        .H      LDR      r0,[pc,#64] ; [0x800255c] = 0x2000014c
        0x0800251a:    b510        ..      PUSH     {r4,lr}
        0x0800251c:    490e        .I      LDR      r1,[pc,#56] ; [0x8002558] = 0x40013000
        0x0800251e:    6001        .`      STR      r1,[r0,#0]
        0x08002520:    f44f7182    O..q    MOV      r1,#0x104
        0x08002524:    6041        A`      STR      r1,[r0,#4]
        0x08002526:    2100        .!      MOVS     r1,#0
        0x08002528:    6081        .`      STR      r1,[r0,#8]
        0x0800252a:    60c1        .`      STR      r1,[r0,#0xc]
        0x0800252c:    f44f7200    O..r    MOV      r2,#0x200
        0x08002530:    6101        .a      STR      r1,[r0,#0x10]
        0x08002532:    e9c01205    ....    STRD     r1,r2,[r0,#0x14]
        0x08002536:    2208        ."      MOVS     r2,#8
        0x08002538:    e9c02107    ...!    STRD     r2,r1,[r0,#0x1c]
        0x0800253c:    6241        Ab      STR      r1,[r0,#0x24]
        0x0800253e:    6281        .b      STR      r1,[r0,#0x28]
        0x08002540:    210a        .!      MOVS     r1,#0xa
        0x08002542:    62c1        .b      STR      r1,[r0,#0x2c]
        0x08002544:    f7feffbc    ....    BL       HAL_SPI_Init ; 0x80014c0
        0x08002548:    2800        .(      CMP      r0,#0
        0x0800254a:    d003        ..      BEQ      0x8002554 ; MX_SPI1_Init + 60
        0x0800254c:    e8bd4010    ...@    POP      {r4,lr}
        0x08002550:    f7fdbef6    ....    B        Error_Handler ; 0x8000340
        0x08002554:    bd10        ..      POP      {r4,pc}
    $d
        0x08002556:    0000        ..      DCW    0
        0x08002558:    40013000    .0.@    DCD    1073819648
        0x0800255c:    2000014c    L..     DCD    536871244
    $t
    i.MX_TIM1_Init
    MX_TIM1_Init
        0x08002560:    b510        ..      PUSH     {r4,lr}
        0x08002562:    b096        ..      SUB      sp,sp,#0x58
        0x08002564:    2400        .$      MOVS     r4,#0
        0x08002566:    940f        ..      STR      r4,[sp,#0x3c]
        0x08002568:    9410        ..      STR      r4,[sp,#0x40]
        0x0800256a:    9411        ..      STR      r4,[sp,#0x44]
        0x0800256c:    9412        ..      STR      r4,[sp,#0x48]
        0x0800256e:    9413        ..      STR      r4,[sp,#0x4c]
        0x08002570:    211c        .!      MOVS     r1,#0x1c
        0x08002572:    a808        ..      ADD      r0,sp,#0x20
        0x08002574:    9414        ..      STR      r4,[sp,#0x50]
        0x08002576:    f7fdfe7b    ..{.    BL       __aeabi_memclr ; 0x8000270
        0x0800257a:    2120         !      MOVS     r1,#0x20
        0x0800257c:    4668        hF      MOV      r0,sp
        0x0800257e:    f7fdfe77    ..w.    BL       __aeabi_memclr ; 0x8000270
        0x08002582:    482a        *H      LDR      r0,[pc,#168] ; [0x800262c] = 0x200001a4
        0x08002584:    4928        (I      LDR      r1,[pc,#160] ; [0x8002628] = 0x40012c00
        0x08002586:    6001        .`      STR      r1,[r0,#0]
        0x08002588:    2147        G!      MOVS     r1,#0x47
        0x0800258a:    e9c01401    ....    STRD     r1,r4,[r0,#4]
        0x0800258e:    f24031e7    @..1    MOV      r1,#0x3e7
        0x08002592:    e9c01403    ....    STRD     r1,r4,[r0,#0xc]
        0x08002596:    2180        .!      MOVS     r1,#0x80
        0x08002598:    e9c04105    ...A    STRD     r4,r1,[r0,#0x14]
        0x0800259c:    f7fff882    ....    BL       HAL_TIM_Base_Init ; 0x80016a4
        0x080025a0:    b108        ..      CBZ      r0,0x80025a6 ; MX_TIM1_Init + 70
        0x080025a2:    f7fdfecd    ....    BL       Error_Handler ; 0x8000340
        0x080025a6:    f44f5080    O..P    MOV      r0,#0x1000
        0x080025aa:    900f        ..      STR      r0,[sp,#0x3c]
        0x080025ac:    a90f        ..      ADD      r1,sp,#0x3c
        0x080025ae:    481f        .H      LDR      r0,[pc,#124] ; [0x800262c] = 0x200001a4
        0x080025b0:    f7fff8f0    ....    BL       HAL_TIM_ConfigClockSource ; 0x8001794
        0x080025b4:    b108        ..      CBZ      r0,0x80025ba ; MX_TIM1_Init + 90
        0x080025b6:    f7fdfec3    ....    BL       Error_Handler ; 0x8000340
        0x080025ba:    481c        .H      LDR      r0,[pc,#112] ; [0x800262c] = 0x200001a4
        0x080025bc:    f7fffae9    ....    BL       HAL_TIM_PWM_Init ; 0x8001b92
        0x080025c0:    b108        ..      CBZ      r0,0x80025c6 ; MX_TIM1_Init + 102
        0x080025c2:    f7fdfebd    ....    BL       Error_Handler ; 0x8000340
        0x080025c6:    9413        ..      STR      r4,[sp,#0x4c]
        0x080025c8:    a913        ..      ADD      r1,sp,#0x4c
        0x080025ca:    4818        .H      LDR      r0,[pc,#96] ; [0x800262c] = 0x200001a4
        0x080025cc:    9414        ..      STR      r4,[sp,#0x50]
        0x080025ce:    f7fff835    ..5.    BL       HAL_TIMEx_MasterConfigSynchronization ; 0x800163c
        0x080025d2:    b108        ..      CBZ      r0,0x80025d8 ; MX_TIM1_Init + 120
        0x080025d4:    f7fdfeb4    ....    BL       Error_Handler ; 0x8000340
        0x080025d8:    2060        `       MOVS     r0,#0x60
        0x080025da:    9008        ..      STR      r0,[sp,#0x20]
        0x080025dc:    f24010f3    @...    MOV      r0,#0x1f3
        0x080025e0:    e9cd0409    ....    STRD     r0,r4,[sp,#0x24]
        0x080025e4:    940b        ..      STR      r4,[sp,#0x2c]
        0x080025e6:    940c        ..      STR      r4,[sp,#0x30]
        0x080025e8:    940d        ..      STR      r4,[sp,#0x34]
        0x080025ea:    2200        ."      MOVS     r2,#0
        0x080025ec:    a908        ..      ADD      r1,sp,#0x20
        0x080025ee:    480f        .H      LDR      r0,[pc,#60] ; [0x800262c] = 0x200001a4
        0x080025f0:    940e        ..      STR      r4,[sp,#0x38]
        0x080025f2:    f7fffa68    ..h.    BL       HAL_TIM_PWM_ConfigChannel ; 0x8001ac6
        0x080025f6:    b108        ..      CBZ      r0,0x80025fc ; MX_TIM1_Init + 156
        0x080025f8:    f7fdfea2    ....    BL       Error_Handler ; 0x8000340
        0x080025fc:    9400        ..      STR      r4,[sp,#0]
        0x080025fe:    f44f5000    O..P    MOV      r0,#0x2000
        0x08002602:    e9cd4004    ...@    STRD     r4,r0,[sp,#0x10]
        0x08002606:    9402        ..      STR      r4,[sp,#8]
        0x08002608:    9401        ..      STR      r4,[sp,#4]
        0x0800260a:    9403        ..      STR      r4,[sp,#0xc]
        0x0800260c:    4669        iF      MOV      r1,sp
        0x0800260e:    4807        .H      LDR      r0,[pc,#28] ; [0x800262c] = 0x200001a4
        0x08002610:    9407        ..      STR      r4,[sp,#0x1c]
        0x08002612:    f7feffe9    ....    BL       HAL_TIMEx_ConfigBreakDeadTime ; 0x80015e8
        0x08002616:    b108        ..      CBZ      r0,0x800261c ; MX_TIM1_Init + 188
        0x08002618:    f7fdfe92    ....    BL       Error_Handler ; 0x8000340
        0x0800261c:    4803        .H      LDR      r0,[pc,#12] ; [0x800262c] = 0x200001a4
        0x0800261e:    f7fff9db    ....    BL       HAL_TIM_MspPostInit ; 0x80019d8
        0x08002622:    b016        ..      ADD      sp,sp,#0x58
        0x08002624:    bd10        ..      POP      {r4,pc}
    $d
        0x08002626:    0000        ..      DCW    0
        0x08002628:    40012c00    .,.@    DCD    1073818624
        0x0800262c:    200001a4    ...     DCD    536871332
    $t
    i.MX_TIM2_Init
    MX_TIM2_Init
        0x08002630:    b510        ..      PUSH     {r4,lr}
        0x08002632:    b08e        ..      SUB      sp,sp,#0x38
        0x08002634:    2400        .$      MOVS     r4,#0
        0x08002636:    9407        ..      STR      r4,[sp,#0x1c]
        0x08002638:    9408        ..      STR      r4,[sp,#0x20]
        0x0800263a:    9409        ..      STR      r4,[sp,#0x24]
        0x0800263c:    940a        ..      STR      r4,[sp,#0x28]
        0x0800263e:    940b        ..      STR      r4,[sp,#0x2c]
        0x08002640:    211c        .!      MOVS     r1,#0x1c
        0x08002642:    4668        hF      MOV      r0,sp
        0x08002644:    940c        ..      STR      r4,[sp,#0x30]
        0x08002646:    f7fdfe13    ....    BL       __aeabi_memclr ; 0x8000270
        0x0800264a:    4827        'H      LDR      r0,[pc,#156] ; [0x80026e8] = 0x200001ec
        0x0800264c:    f04f4180    O..A    MOV      r1,#0x40000000
        0x08002650:    6001        .`      STR      r1,[r0,#0]
        0x08002652:    f2401167    @.g.    MOV      r1,#0x167
        0x08002656:    e9c01401    ....    STRD     r1,r4,[r0,#4]
        0x0800265a:    f24071cf    @..q    MOV      r1,#0x7cf
        0x0800265e:    e9c01403    ....    STRD     r1,r4,[r0,#0xc]
        0x08002662:    2180        .!      MOVS     r1,#0x80
        0x08002664:    6181        .a      STR      r1,[r0,#0x18]
        0x08002666:    f7fff81d    ....    BL       HAL_TIM_Base_Init ; 0x80016a4
        0x0800266a:    b108        ..      CBZ      r0,0x8002670 ; MX_TIM2_Init + 64
        0x0800266c:    f7fdfe68    ..h.    BL       Error_Handler ; 0x8000340
        0x08002670:    f44f5080    O..P    MOV      r0,#0x1000
        0x08002674:    9007        ..      STR      r0,[sp,#0x1c]
        0x08002676:    a907        ..      ADD      r1,sp,#0x1c
        0x08002678:    481b        .H      LDR      r0,[pc,#108] ; [0x80026e8] = 0x200001ec
        0x0800267a:    f7fff88b    ....    BL       HAL_TIM_ConfigClockSource ; 0x8001794
        0x0800267e:    b108        ..      CBZ      r0,0x8002684 ; MX_TIM2_Init + 84
        0x08002680:    f7fdfe5e    ..^.    BL       Error_Handler ; 0x8000340
        0x08002684:    4818        .H      LDR      r0,[pc,#96] ; [0x80026e8] = 0x200001ec
        0x08002686:    f7fffa84    ....    BL       HAL_TIM_PWM_Init ; 0x8001b92
        0x0800268a:    b108        ..      CBZ      r0,0x8002690 ; MX_TIM2_Init + 96
        0x0800268c:    f7fdfe58    ..X.    BL       Error_Handler ; 0x8000340
        0x08002690:    940b        ..      STR      r4,[sp,#0x2c]
        0x08002692:    a90b        ..      ADD      r1,sp,#0x2c
        0x08002694:    4814        .H      LDR      r0,[pc,#80] ; [0x80026e8] = 0x200001ec
        0x08002696:    940c        ..      STR      r4,[sp,#0x30]
        0x08002698:    f7feffd0    ....    BL       HAL_TIMEx_MasterConfigSynchronization ; 0x800163c
        0x0800269c:    b108        ..      CBZ      r0,0x80026a2 ; MX_TIM2_Init + 114
        0x0800269e:    f7fdfe4f    ..O.    BL       Error_Handler ; 0x8000340
        0x080026a2:    2060        `       MOVS     r0,#0x60
        0x080026a4:    e9cd0400    ....    STRD     r0,r4,[sp,#0]
        0x080026a8:    9402        ..      STR      r4,[sp,#8]
        0x080026aa:    2200        ."      MOVS     r2,#0
        0x080026ac:    4669        iF      MOV      r1,sp
        0x080026ae:    480e        .H      LDR      r0,[pc,#56] ; [0x80026e8] = 0x200001ec
        0x080026b0:    9404        ..      STR      r4,[sp,#0x10]
        0x080026b2:    f7fffa08    ....    BL       HAL_TIM_PWM_ConfigChannel ; 0x8001ac6
        0x080026b6:    b108        ..      CBZ      r0,0x80026bc ; MX_TIM2_Init + 140
        0x080026b8:    f7fdfe42    ..B.    BL       Error_Handler ; 0x8000340
        0x080026bc:    2204        ."      MOVS     r2,#4
        0x080026be:    4669        iF      MOV      r1,sp
        0x080026c0:    4809        .H      LDR      r0,[pc,#36] ; [0x80026e8] = 0x200001ec
        0x080026c2:    f7fffa00    ....    BL       HAL_TIM_PWM_ConfigChannel ; 0x8001ac6
        0x080026c6:    b108        ..      CBZ      r0,0x80026cc ; MX_TIM2_Init + 156
        0x080026c8:    f7fdfe3a    ..:.    BL       Error_Handler ; 0x8000340
        0x080026cc:    2208        ."      MOVS     r2,#8
        0x080026ce:    4669        iF      MOV      r1,sp
        0x080026d0:    4805        .H      LDR      r0,[pc,#20] ; [0x80026e8] = 0x200001ec
        0x080026d2:    f7fff9f8    ....    BL       HAL_TIM_PWM_ConfigChannel ; 0x8001ac6
        0x080026d6:    b108        ..      CBZ      r0,0x80026dc ; MX_TIM2_Init + 172
        0x080026d8:    f7fdfe32    ..2.    BL       Error_Handler ; 0x8000340
        0x080026dc:    4802        .H      LDR      r0,[pc,#8] ; [0x80026e8] = 0x200001ec
        0x080026de:    f7fff97b    ..{.    BL       HAL_TIM_MspPostInit ; 0x80019d8
        0x080026e2:    b00e        ..      ADD      sp,sp,#0x38
        0x080026e4:    bd10        ..      POP      {r4,pc}
    $d
        0x080026e6:    0000        ..      DCW    0
        0x080026e8:    200001ec    ...     DCD    536871404
    $t
    i.MX_TIM3_Init
    MX_TIM3_Init
        0x080026ec:    b510        ..      PUSH     {r4,lr}
        0x080026ee:    b08a        ..      SUB      sp,sp,#0x28
        0x080026f0:    2400        .$      MOVS     r4,#0
        0x080026f2:    9407        ..      STR      r4,[sp,#0x1c]
        0x080026f4:    211c        .!      MOVS     r1,#0x1c
        0x080026f6:    4668        hF      MOV      r0,sp
        0x080026f8:    9408        ..      STR      r4,[sp,#0x20]
        0x080026fa:    f7fdfdb9    ....    BL       __aeabi_memclr ; 0x8000270
        0x080026fe:    4818        .H      LDR      r0,[pc,#96] ; [0x8002760] = 0x20000234
        0x08002700:    4916        .I      LDR      r1,[pc,#88] ; [0x800275c] = 0x40000400
        0x08002702:    6001        .`      STR      r1,[r0,#0]
        0x08002704:    2107        .!      MOVS     r1,#7
        0x08002706:    e9c01401    ....    STRD     r1,r4,[r0,#4]
        0x0800270a:    f24031e7    @..1    MOV      r1,#0x3e7
        0x0800270e:    e9c01403    ....    STRD     r1,r4,[r0,#0xc]
        0x08002712:    2180        .!      MOVS     r1,#0x80
        0x08002714:    6181        .a      STR      r1,[r0,#0x18]
        0x08002716:    f7fffa3c    ..<.    BL       HAL_TIM_PWM_Init ; 0x8001b92
        0x0800271a:    b108        ..      CBZ      r0,0x8002720 ; MX_TIM3_Init + 52
        0x0800271c:    f7fdfe10    ....    BL       Error_Handler ; 0x8000340
        0x08002720:    9407        ..      STR      r4,[sp,#0x1c]
        0x08002722:    a907        ..      ADD      r1,sp,#0x1c
        0x08002724:    480e        .H      LDR      r0,[pc,#56] ; [0x8002760] = 0x20000234
        0x08002726:    9408        ..      STR      r4,[sp,#0x20]
        0x08002728:    f7feff88    ....    BL       HAL_TIMEx_MasterConfigSynchronization ; 0x800163c
        0x0800272c:    b108        ..      CBZ      r0,0x8002732 ; MX_TIM3_Init + 70
        0x0800272e:    f7fdfe07    ....    BL       Error_Handler ; 0x8000340
        0x08002732:    2060        `       MOVS     r0,#0x60
        0x08002734:    9000        ..      STR      r0,[sp,#0]
        0x08002736:    f44f7061    O.ap    MOV      r0,#0x384
        0x0800273a:    e9cd0401    ....    STRD     r0,r4,[sp,#4]
        0x0800273e:    2200        ."      MOVS     r2,#0
        0x08002740:    4669        iF      MOV      r1,sp
        0x08002742:    4807        .H      LDR      r0,[pc,#28] ; [0x8002760] = 0x20000234
        0x08002744:    9404        ..      STR      r4,[sp,#0x10]
        0x08002746:    f7fff9be    ....    BL       HAL_TIM_PWM_ConfigChannel ; 0x8001ac6
        0x0800274a:    b108        ..      CBZ      r0,0x8002750 ; MX_TIM3_Init + 100
        0x0800274c:    f7fdfdf8    ....    BL       Error_Handler ; 0x8000340
        0x08002750:    4803        .H      LDR      r0,[pc,#12] ; [0x8002760] = 0x20000234
        0x08002752:    f7fff941    ..A.    BL       HAL_TIM_MspPostInit ; 0x80019d8
        0x08002756:    b00a        ..      ADD      sp,sp,#0x28
        0x08002758:    bd10        ..      POP      {r4,pc}
    $d
        0x0800275a:    0000        ..      DCW    0
        0x0800275c:    40000400    ...@    DCD    1073742848
        0x08002760:    20000234    4..     DCD    536871476
    $t
    i.MX_USART1_UART_Init
    MX_USART1_UART_Init
        0x08002764:    480c        .H      LDR      r0,[pc,#48] ; [0x8002798] = 0x2000027c
        0x08002766:    b510        ..      PUSH     {r4,lr}
        0x08002768:    490a        .I      LDR      r1,[pc,#40] ; [0x8002794] = 0x40013800
        0x0800276a:    6001        .`      STR      r1,[r0,#0]
        0x0800276c:    f44f31e1    O..1    MOV      r1,#0x1c200
        0x08002770:    6041        A`      STR      r1,[r0,#4]
        0x08002772:    2100        .!      MOVS     r1,#0
        0x08002774:    6081        .`      STR      r1,[r0,#8]
        0x08002776:    220c        ."      MOVS     r2,#0xc
        0x08002778:    60c1        .`      STR      r1,[r0,#0xc]
        0x0800277a:    e9c01204    ....    STRD     r1,r2,[r0,#0x10]
        0x0800277e:    6181        .a      STR      r1,[r0,#0x18]
        0x08002780:    61c1        .a      STR      r1,[r0,#0x1c]
        0x08002782:    f7fffa54    ..T.    BL       HAL_UART_Init ; 0x8001c2e
        0x08002786:    2800        .(      CMP      r0,#0
        0x08002788:    d003        ..      BEQ      0x8002792 ; MX_USART1_UART_Init + 46
        0x0800278a:    e8bd4010    ...@    POP      {r4,lr}
        0x0800278e:    f7fdbdd7    ....    B        Error_Handler ; 0x8000340
        0x08002792:    bd10        ..      POP      {r4,pc}
    $d
        0x08002794:    40013800    .8.@    DCD    1073821696
        0x08002798:    2000027c    |..     DCD    536871548
    $t
    i.MX_USB_PCD_Init
    MX_USB_PCD_Init
        0x0800279c:    480b        .H      LDR      r0,[pc,#44] ; [0x80027cc] = 0x200002c4
        0x0800279e:    b510        ..      PUSH     {r4,lr}
        0x080027a0:    4909        .I      LDR      r1,[pc,#36] ; [0x80027c8] = 0x40005c00
        0x080027a2:    6001        .`      STR      r1,[r0,#0]
        0x080027a4:    2108        .!      MOVS     r1,#8
        0x080027a6:    6041        A`      STR      r1,[r0,#4]
        0x080027a8:    2102        .!      MOVS     r1,#2
        0x080027aa:    6081        .`      STR      r1,[r0,#8]
        0x080027ac:    2100        .!      MOVS     r1,#0
        0x080027ae:    6181        .a      STR      r1,[r0,#0x18]
        0x080027b0:    61c1        .a      STR      r1,[r0,#0x1c]
        0x080027b2:    6201        .b      STR      r1,[r0,#0x20]
        0x080027b4:    f7fefb00    ....    BL       HAL_PCD_Init ; 0x8000db8
        0x080027b8:    2800        .(      CMP      r0,#0
        0x080027ba:    d003        ..      BEQ      0x80027c4 ; MX_USB_PCD_Init + 40
        0x080027bc:    e8bd4010    ...@    POP      {r4,lr}
        0x080027c0:    f7fdbdbe    ....    B        Error_Handler ; 0x8000340
        0x080027c4:    bd10        ..      POP      {r4,pc}
    $d
        0x080027c6:    0000        ..      DCW    0
        0x080027c8:    40005c00    .\.@    DCD    1073765376
        0x080027cc:    200002c4    ...     DCD    536871620
    $t
    i.MemManage_Handler
    MemManage_Handler
        0x080027d0:    e7fe        ..      B        MemManage_Handler ; 0x80027d0
    i.MyTask
    MyTask
        0x080027d2:    f7fffd7b    ..{.    BL       Led_Test ; 0x80022cc
        0x080027d6:    e7fc        ..      B        MyTask ; 0x80027d2
    i.NMI_Handler
    NMI_Handler
        0x080027d8:    e7fe        ..      B        NMI_Handler ; 0x80027d8
    i.OLED_Clear
    OLED_Clear
        0x080027da:    b510        ..      PUSH     {r4,lr}
        0x080027dc:    b0a0        ..      SUB      sp,sp,#0x80
        0x080027de:    2400        .$      MOVS     r4,#0
        0x080027e0:    2180        .!      MOVS     r1,#0x80
        0x080027e2:    4668        hF      MOV      r0,sp
        0x080027e4:    f7fdfd44    ..D.    BL       __aeabi_memclr ; 0x8000270
        0x080027e8:    2100        .!      MOVS     r1,#0
        0x080027ea:    4620         F      MOV      r0,r4
        0x080027ec:    f000f8e6    ....    BL       OLED_SetPosition ; 0x80029bc
        0x080027f0:    2180        .!      MOVS     r1,#0x80
        0x080027f2:    4668        hF      MOV      r0,sp
        0x080027f4:    f000f93e    ..>.    BL       OLED_WriteNBytes ; 0x8002a74
        0x080027f8:    1c64        d.      ADDS     r4,r4,#1
        0x080027fa:    b2e4        ..      UXTB     r4,r4
        0x080027fc:    2c08        .,      CMP      r4,#8
        0x080027fe:    d3f3        ..      BCC      0x80027e8 ; OLED_Clear + 14
        0x08002800:    b020         .      ADD      sp,sp,#0x80
        0x08002802:    bd10        ..      POP      {r4,pc}
    i.OLED_Init
    OLED_Init
        0x08002804:    b510        ..      PUSH     {r4,lr}
        0x08002806:    2402        .$      MOVS     r4,#2
        0x08002808:    2020                MOVS     r0,#0x20
        0x0800280a:    f000f91f    ....    BL       OLED_WriteCmd ; 0x8002a4c
        0x0800280e:    4620         F      MOV      r0,r4
        0x08002810:    f000f91c    ....    BL       OLED_WriteCmd ; 0x8002a4c
        0x08002814:    481f        .H      LDR      r0,[pc,#124] ; [0x8002894] = 0x2000008c
        0x08002816:    7004        .p      STRB     r4,[r0,#0]
        0x08002818:    243f        ?$      MOVS     r4,#0x3f
        0x0800281a:    20a8        .       MOVS     r0,#0xa8
        0x0800281c:    f000f916    ....    BL       OLED_WriteCmd ; 0x8002a4c
        0x08002820:    4620         F      MOV      r0,r4
        0x08002822:    f000f913    ....    BL       OLED_WriteCmd ; 0x8002a4c
        0x08002826:    2400        .$      MOVS     r4,#0
        0x08002828:    20d3        .       MOVS     r0,#0xd3
        0x0800282a:    f000f90f    ....    BL       OLED_WriteCmd ; 0x8002a4c
        0x0800282e:    4620         F      MOV      r0,r4
        0x08002830:    f000f90c    ....    BL       OLED_WriteCmd ; 0x8002a4c
        0x08002834:    2040        @       MOVS     r0,#0x40
        0x08002836:    f000f909    ....    BL       OLED_WriteCmd ; 0x8002a4c
        0x0800283a:    20a1        .       MOVS     r0,#0xa1
        0x0800283c:    f000f906    ....    BL       OLED_WriteCmd ; 0x8002a4c
        0x08002840:    20c8        .       MOVS     r0,#0xc8
        0x08002842:    f000f903    ....    BL       OLED_WriteCmd ; 0x8002a4c
        0x08002846:    2100        .!      MOVS     r1,#0
        0x08002848:    4608        .F      MOV      r0,r1
        0x0800284a:    f000f8a1    ....    BL       OLED_SetComConfig ; 0x8002990
        0x0800284e:    247f        .$      MOVS     r4,#0x7f
        0x08002850:    2081        .       MOVS     r0,#0x81
        0x08002852:    f000f8fb    ....    BL       OLED_WriteCmd ; 0x8002a4c
        0x08002856:    4620         F      MOV      r0,r4
        0x08002858:    f000f8f8    ....    BL       OLED_WriteCmd ; 0x8002a4c
        0x0800285c:    20a4        .       MOVS     r0,#0xa4
        0x0800285e:    f000f8f5    ....    BL       OLED_WriteCmd ; 0x8002a4c
        0x08002862:    20a6        .       MOVS     r0,#0xa6
        0x08002864:    f000f8f2    ....    BL       OLED_WriteCmd ; 0x8002a4c
        0x08002868:    20d5        .       MOVS     r0,#0xd5
        0x0800286a:    f000f8ef    ....    BL       OLED_WriteCmd ; 0x8002a4c
        0x0800286e:    2080        .       MOVS     r0,#0x80
        0x08002870:    f000f8ec    ....    BL       OLED_WriteCmd ; 0x8002a4c
        0x08002874:    208d        .       MOVS     r0,#0x8d
        0x08002876:    f000f8e9    ....    BL       OLED_WriteCmd ; 0x8002a4c
        0x0800287a:    2014        .       MOVS     r0,#0x14
        0x0800287c:    f000f8e6    ....    BL       OLED_WriteCmd ; 0x8002a4c
        0x08002880:    2100        .!      MOVS     r1,#0
        0x08002882:    2001        .       MOVS     r0,#1
        0x08002884:    f000f884    ....    BL       OLED_SetComConfig ; 0x8002990
        0x08002888:    e8bd4010    ...@    POP      {r4,lr}
        0x0800288c:    20af        .       MOVS     r0,#0xaf
        0x0800288e:    f000b8dd    ....    B.W      OLED_WriteCmd ; 0x8002a4c
    $d
        0x08002892:    0000        ..      DCW    0
        0x08002894:    2000008c    ...     DCD    536871052
    $t
    i.OLED_PrintSignedVal
    OLED_PrintSignedVal
        0x08002898:    b5f0        ..      PUSH     {r4-r7,lr}
        0x0800289a:    b089        ..      SUB      sp,sp,#0x24
        0x0800289c:    2400        .$      MOVS     r4,#0
        0x0800289e:    4607        .F      MOV      r7,r0
        0x080028a0:    4620         F      MOV      r0,r4
        0x080028a2:    466d        mF      MOV      r5,sp
        0x080028a4:    ae04        ..      ADD      r6,sp,#0x10
        0x080028a6:    2a00        .*      CMP      r2,#0
        0x080028a8:    da08        ..      BGE      0x80028bc ; OLED_PrintSignedVal + 36
        0x080028aa:    f04f032d    O.-.    MOV      r3,#0x2d
        0x080028ae:    f88d3000    ...0    STRB     r3,[sp,#0]
        0x080028b2:    f04f0401    O...    MOV      r4,#1
        0x080028b6:    f1c20200    ....    RSB      r2,r2,#0
        0x080028ba:    e014        ..      B        0x80028e6 ; OLED_PrintSignedVal + 78
        0x080028bc:    d106        ..      BNE      0x80028cc ; OLED_PrintSignedVal + 52
        0x080028be:    f04f0030    O.0.    MOV      r0,#0x30
        0x080028c2:    f88d0000    ....    STRB     r0,[sp,#0]
        0x080028c6:    f04f0401    O...    MOV      r4,#1
        0x080028ca:    e01a        ..      B        0x8002902 ; OLED_PrintSignedVal + 106
        0x080028cc:    f04f0c0a    O...    MOV      r12,#0xa
        0x080028d0:    fb92f3fc    ....    SDIV     r3,r2,r12
        0x080028d4:    fb0c2313    ...#    MLS      r3,r12,r3,r2
        0x080028d8:    fb92f2fc    ....    SDIV     r2,r2,r12
        0x080028dc:    f1030330    ..0.    ADD      r3,r3,#0x30
        0x080028e0:    5433        3T      STRB     r3,[r6,r0]
        0x080028e2:    f1000001    ....    ADD      r0,r0,#1
        0x080028e6:    2a00        .*      CMP      r2,#0
        0x080028e8:    d1f0        ..      BNE      0x80028cc ; OLED_PrintSignedVal + 52
        0x080028ea:    e008        ..      B        0x80028fe ; OLED_PrintSignedVal + 102
        0x080028ec:    eb060200    ....    ADD      r2,r6,r0
        0x080028f0:    f1a00001    ....    SUB      r0,r0,#1
        0x080028f4:    f8122c01    ...,    LDRB     r2,[r2,#-1]
        0x080028f8:    552a        *U      STRB     r2,[r5,r4]
        0x080028fa:    f1040401    ....    ADD      r4,r4,#1
        0x080028fe:    2800        .(      CMP      r0,#0
        0x08002900:    d1f4        ..      BNE      0x80028ec ; OLED_PrintSignedVal + 84
        0x08002902:    f04f0000    O...    MOV      r0,#0
        0x08002906:    5528        (U      STRB     r0,[r5,r4]
        0x08002908:    462a        *F      MOV      r2,r5
        0x0800290a:    4638        8F      MOV      r0,r7
        0x0800290c:    f000f803    ....    BL       OLED_PrintString ; 0x8002916
        0x08002910:    b009        ..      ADD      sp,sp,#0x24
        0x08002912:    4620         F      MOV      r0,r4
        0x08002914:    bdf0        ..      POP      {r4-r7,pc}
    i.OLED_PrintString
    OLED_PrintString
        0x08002916:    e92d41f0    -..A    PUSH     {r4-r8,lr}
        0x0800291a:    4617        .F      MOV      r7,r2
        0x0800291c:    460e        .F      MOV      r6,r1
        0x0800291e:    4604        .F      MOV      r4,r0
        0x08002920:    2500        .%      MOVS     r5,#0
        0x08002922:    e00b        ..      B        0x800293c ; OLED_PrintString + 38
        0x08002924:    4631        1F      MOV      r1,r6
        0x08002926:    4620         F      MOV      r0,r4
        0x08002928:    f000f80e    ....    BL       OLED_PutChar ; 0x8002948
        0x0800292c:    1c64        d.      ADDS     r4,r4,#1
        0x0800292e:    b2e4        ..      UXTB     r4,r4
        0x08002930:    2c0f        .,      CMP      r4,#0xf
        0x08002932:    d902        ..      BLS      0x800293a ; OLED_PrintString + 36
        0x08002934:    2400        .$      MOVS     r4,#0
        0x08002936:    1cb6        ..      ADDS     r6,r6,#2
        0x08002938:    b2f6        ..      UXTB     r6,r6
        0x0800293a:    1c6d        m.      ADDS     r5,r5,#1
        0x0800293c:    5d7a        z]      LDRB     r2,[r7,r5]
        0x0800293e:    2a00        .*      CMP      r2,#0
        0x08002940:    d1f0        ..      BNE      0x8002924 ; OLED_PrintString + 14
        0x08002942:    4628        (F      MOV      r0,r5
        0x08002944:    e8bd81f0    ....    POP      {r4-r8,pc}
    i.OLED_PutChar
    OLED_PutChar
        0x08002948:    b570        p.      PUSH     {r4-r6,lr}
        0x0800294a:    4616        .F      MOV      r6,r2
        0x0800294c:    06c2        ..      LSLS     r2,r0,#27
        0x0800294e:    0e15        ..      LSRS     r5,r2,#24
        0x08002950:    460c        .F      MOV      r4,r1
        0x08002952:    2907        .)      CMP      r1,#7
        0x08002954:    d818        ..      BHI      0x8002988 ; OLED_PutChar + 64
        0x08002956:    280f        .(      CMP      r0,#0xf
        0x08002958:    d816        ..      BHI      0x8002988 ; OLED_PutChar + 64
        0x0800295a:    4629        )F      MOV      r1,r5
        0x0800295c:    4620         F      MOV      r0,r4
        0x0800295e:    f000f82d    ..-.    BL       OLED_SetPosition ; 0x80029bc
        0x08002962:    480a        .H      LDR      r0,[pc,#40] ; [0x800298c] = 0x800471a
        0x08002964:    2108        .!      MOVS     r1,#8
        0x08002966:    eb001006    ....    ADD      r0,r0,r6,LSL #4
        0x0800296a:    4606        .F      MOV      r6,r0
        0x0800296c:    f000f882    ....    BL       OLED_WriteNBytes ; 0x8002a74
        0x08002970:    1c64        d.      ADDS     r4,r4,#1
        0x08002972:    b2e0        ..      UXTB     r0,r4
        0x08002974:    4629        )F      MOV      r1,r5
        0x08002976:    f000f821    ..!.    BL       OLED_SetPosition ; 0x80029bc
        0x0800297a:    f1060008    ....    ADD      r0,r6,#8
        0x0800297e:    e8bd4070    ..p@    POP      {r4-r6,lr}
        0x08002982:    2108        .!      MOVS     r1,#8
        0x08002984:    f000b876    ..v.    B.W      OLED_WriteNBytes ; 0x8002a74
        0x08002988:    bd70        p.      POP      {r4-r6,pc}
    $d
        0x0800298a:    0000        ..      DCW    0
        0x0800298c:    0800471a    .G..    DCD    134235930
    $t
    i.OLED_SetComConfig
    OLED_SetComConfig
        0x08002990:    b570        p.      PUSH     {r4-r6,lr}
        0x08002992:    460c        .F      MOV      r4,r1
        0x08002994:    0005        ..      MOVS     r5,r0
        0x08002996:    d001        ..      BEQ      0x800299c ; OLED_SetComConfig + 12
        0x08002998:    2d01        .-      CMP      r5,#1
        0x0800299a:    d10e        ..      BNE      0x80029ba ; OLED_SetComConfig + 42
        0x0800299c:    b10c        ..      CBZ      r4,0x80029a2 ; OLED_SetComConfig + 18
        0x0800299e:    2c01        .,      CMP      r4,#1
        0x080029a0:    d10b        ..      BNE      0x80029ba ; OLED_SetComConfig + 42
        0x080029a2:    20da        .       MOVS     r0,#0xda
        0x080029a4:    f000f852    ..R.    BL       OLED_WriteCmd ; 0x8002a4c
        0x080029a8:    0128        (.      LSLS     r0,r5,#4
        0x080029aa:    eb001044    ..D.    ADD      r0,r0,r4,LSL #5
        0x080029ae:    e8bd4070    ..p@    POP      {r4-r6,lr}
        0x080029b2:    1c80        ..      ADDS     r0,r0,#2
        0x080029b4:    b2c0        ..      UXTB     r0,r0
        0x080029b6:    f000b849    ..I.    B.W      OLED_WriteCmd ; 0x8002a4c
        0x080029ba:    bd70        p.      POP      {r4-r6,pc}
    i.OLED_SetPosition
    OLED_SetPosition
        0x080029bc:    b570        p.      PUSH     {r4-r6,lr}
        0x080029be:    4d0e        .M      LDR      r5,[pc,#56] ; [0x80029f8] = 0x2000008c
        0x080029c0:    460c        .F      MOV      r4,r1
        0x080029c2:    7829        )x      LDRB     r1,[r5,#0]
        0x080029c4:    2902        .)      CMP      r1,#2
        0x080029c6:    d105        ..      BNE      0x80029d4 ; OLED_SetPosition + 24
        0x080029c8:    2807        .(      CMP      r0,#7
        0x080029ca:    d803        ..      BHI      0x80029d4 ; OLED_SetPosition + 24
        0x080029cc:    30b0        .0      ADDS     r0,r0,#0xb0
        0x080029ce:    b2c0        ..      UXTB     r0,r0
        0x080029d0:    f000f83c    ..<.    BL       OLED_WriteCmd ; 0x8002a4c
        0x080029d4:    7828        (x      LDRB     r0,[r5,#0]
        0x080029d6:    2802        .(      CMP      r0,#2
        0x080029d8:    d10c        ..      BNE      0x80029f4 ; OLED_SetPosition + 56
        0x080029da:    2c7f        .,      CMP      r4,#0x7f
        0x080029dc:    d80a        ..      BHI      0x80029f4 ; OLED_SetPosition + 56
        0x080029de:    f004000f    ....    AND      r0,r4,#0xf
        0x080029e2:    f000f833    ..3.    BL       OLED_WriteCmd ; 0x8002a4c
        0x080029e6:    2010        .       MOVS     r0,#0x10
        0x080029e8:    eb001014    ....    ADD      r0,r0,r4,LSR #4
        0x080029ec:    e8bd4070    ..p@    POP      {r4-r6,lr}
        0x080029f0:    f000b82c    ..,.    B.W      OLED_WriteCmd ; 0x8002a4c
        0x080029f4:    bd70        p.      POP      {r4-r6,pc}
    $d
        0x080029f6:    0000        ..      DCW    0
        0x080029f8:    2000008c    ...     DCD    536871052
    $t
    i.OLED_Test
    OLED_Test
        0x080029fc:    2400        .$      MOVS     r4,#0
        0x080029fe:    f7ffff01    ....    BL       OLED_Init ; 0x8002804
        0x08002a02:    f7fffeea    ....    BL       OLED_Clear ; 0x80027da
        0x08002a06:    2100        .!      MOVS     r1,#0
        0x08002a08:    2241        A"      MOVS     r2,#0x41
        0x08002a0a:    4608        .F      MOV      r0,r1
        0x08002a0c:    f7ffff9c    ....    BL       OLED_PutChar ; 0x8002948
        0x08002a10:    2259        Y"      MOVS     r2,#0x59
        0x08002a12:    2100        .!      MOVS     r1,#0
        0x08002a14:    2001        .       MOVS     r0,#1
        0x08002a16:    f7ffff97    ....    BL       OLED_PutChar ; 0x8002948
        0x08002a1a:    a208        ..      ADR      r2,{pc}+0x22 ; 0x8002a3c
        0x08002a1c:    2102        .!      MOVS     r1,#2
        0x08002a1e:    2000        .       MOVS     r0,#0
        0x08002a20:    f7ffff79    ..y.    BL       OLED_PrintString ; 0x8002916
        0x08002a24:    4622        "F      MOV      r2,r4
        0x08002a26:    2104        .!      MOVS     r1,#4
        0x08002a28:    2000        .       MOVS     r0,#0
        0x08002a2a:    f7ffff35    ..5.    BL       OLED_PrintSignedVal ; 0x8002898
        0x08002a2e:    2101        .!      MOVS     r1,#1
        0x08002a30:    4620         F      MOV      r0,r4
        0x08002a32:    f000fa7f    ....    BL       add ; 0x8002f34
        0x08002a36:    4604        .F      MOV      r4,r0
        0x08002a38:    e7e5        ..      B        0x8002a06 ; OLED_Test + 10
    $d
        0x08002a3a:    0000        ..      DCW    0
        0x08002a3c:    6c6c6548    Hell    DCD    1819043144
        0x08002a40:    6f57206f    o Wo    DCD    1867980911
        0x08002a44:    21646c72    rld!    DCD    560229490
        0x08002a48:    00000000    ....    DCD    0
    $t
    i.OLED_WriteCmd
    OLED_WriteCmd
        0x08002a4c:    b51c        ..      PUSH     {r2-r4,lr}
        0x08002a4e:    2100        .!      MOVS     r1,#0
        0x08002a50:    f88d1004    ....    STRB     r1,[sp,#4]
        0x08002a54:    f88d0005    ....    STRB     r0,[sp,#5]
        0x08002a58:    f44f70fa    O..p    MOV      r0,#0x1f4
        0x08002a5c:    9000        ..      STR      r0,[sp,#0]
        0x08002a5e:    4804        .H      LDR      r0,[pc,#16] ; [0x8002a70] = 0x2000008c
        0x08002a60:    2302        .#      MOVS     r3,#2
        0x08002a62:    aa01        ..      ADD      r2,sp,#4
        0x08002a64:    2178        x!      MOVS     r1,#0x78
        0x08002a66:    6840        @h      LDR      r0,[r0,#4]
        0x08002a68:    f7fdff80    ....    BL       HAL_I2C_Master_Transmit ; 0x800096c
        0x08002a6c:    bd1c        ..      POP      {r2-r4,pc}
    $d
        0x08002a6e:    0000        ..      DCW    0
        0x08002a70:    2000008c    ...     DCD    536871052
    $t
    i.OLED_WriteNBytes
    OLED_WriteNBytes
        0x08002a74:    b50e        ..      PUSH     {r1-r3,lr}
        0x08002a76:    f44f72fa    O..r    MOV      r2,#0x1f4
        0x08002a7a:    e88d0007    ....    STM      sp,{r0-r2}
        0x08002a7e:    4804        .H      LDR      r0,[pc,#16] ; [0x8002a90] = 0x2000008c
        0x08002a80:    2301        .#      MOVS     r3,#1
        0x08002a82:    2240        @"      MOVS     r2,#0x40
        0x08002a84:    2178        x!      MOVS     r1,#0x78
        0x08002a86:    6840        @h      LDR      r0,[r0,#4]
        0x08002a88:    f7fef806    ....    BL       HAL_I2C_Mem_Write ; 0x8000a98
        0x08002a8c:    bd0e        ..      POP      {r1-r3,pc}
    $d
        0x08002a8e:    0000        ..      DCW    0
        0x08002a90:    2000008c    ...     DCD    536871052
    $t
    i.PutKeyToBuf
    PutKeyToBuf
        0x08002a94:    4b08        .K      LDR      r3,[pc,#32] ; [0x8002ab8] = 0x20000098
        0x08002a96:    b510        ..      PUSH     {r4,lr}
        0x08002a98:    6899        .h      LDR      r1,[r3,#8]
        0x08002a9a:    460a        .F      MOV      r2,r1
        0x08002a9c:    1c49        I.      ADDS     r1,r1,#1
        0x08002a9e:    17cc        ..      ASRS     r4,r1,#31
        0x08002aa0:    eb016454    ..Td    ADD      r4,r1,r4,LSR #25
        0x08002aa4:    f024047f    $...    BIC      r4,r4,#0x7f
        0x08002aa8:    1b09        ..      SUBS     r1,r1,r4
        0x08002aaa:    685c        \h      LDR      r4,[r3,#4]
        0x08002aac:    42a1        .B      CMP      r1,r4
        0x08002aae:    d002        ..      BEQ      0x8002ab6 ; PutKeyToBuf + 34
        0x08002ab0:    4c02        .L      LDR      r4,[pc,#8] ; [0x8002abc] = 0x20001ed0
        0x08002ab2:    54a0        .T      STRB     r0,[r4,r2]
        0x08002ab4:    6099        .`      STR      r1,[r3,#8]
        0x08002ab6:    bd10        ..      POP      {r4,pc}
    $d
        0x08002ab8:    20000098    ...     DCD    536871064
        0x08002abc:    20001ed0    ...     DCD    536878800
    $t
    i.RotaryEncoder_IRQ_Callback
    RotaryEncoder_IRQ_Callback
        0x08002ac0:    e92d41f0    -..A    PUSH     {r4-r8,lr}
        0x08002ac4:    f000ff16    ....    BL       system_get_ns ; 0x80038f4
        0x08002ac8:    4606        .F      MOV      r6,r0
        0x08002aca:    460d        .F      MOV      r5,r1
        0x08002acc:    2002        .       MOVS     r0,#2
        0x08002ace:    f000fa55    ..U.    BL       mdelay ; 0x8002f7c
        0x08002ad2:    4f13        .O      LDR      r7,[pc,#76] ; [0x8002b20] = 0x40010c00
        0x08002ad4:    f44f5180    O..Q    MOV      r1,#0x1000
        0x08002ad8:    4638        8F      MOV      r0,r7
        0x08002ada:    f7fdfe73    ..s.    BL       HAL_GPIO_ReadPin ; 0x80007c4
        0x08002ade:    2800        .(      CMP      r0,#0
        0x08002ae0:    d016        ..      BEQ      0x8002b10 ; RotaryEncoder_IRQ_Callback + 80
        0x08002ae2:    4c10        .L      LDR      r4,[pc,#64] ; [0x8002b24] = 0x200000b0
        0x08002ae4:    e9d40104    ....    LDRD     r0,r1,[r4,#0x10]
        0x08002ae8:    1a32        2.      SUBS     r2,r6,r0
        0x08002aea:    eb650301    e...    SBC      r3,r5,r1
        0x08002aee:    480e        .H      LDR      r0,[pc,#56] ; [0x8002b28] = 0x3b9aca00
        0x08002af0:    2100        .!      MOVS     r1,#0
        0x08002af2:    f7fdfb63    ..c.    BL       __aeabi_uldivmod ; 0x80001bc
        0x08002af6:    6060        ``      STR      r0,[r4,#4]
        0x08002af8:    2101        .!      MOVS     r1,#1
        0x08002afa:    4638        8F      MOV      r0,r7
        0x08002afc:    f7fdfe62    ..b.    BL       HAL_GPIO_ReadPin ; 0x80007c4
        0x08002b00:    2800        .(      CMP      r0,#0
        0x08002b02:    6820         h      LDR      r0,[r4,#0]
        0x08002b04:    d006        ..      BEQ      0x8002b14 ; RotaryEncoder_IRQ_Callback + 84
        0x08002b06:    1c40        @.      ADDS     r0,r0,#1
        0x08002b08:    f8c40000    ....    STR.W    r0,[r4,#0]
        0x08002b0c:    e9c46504    ...e    STRD     r6,r5,[r4,#0x10]
        0x08002b10:    e8bd81f0    ....    POP      {r4-r8,pc}
        0x08002b14:    1e40        @.      SUBS     r0,r0,#1
        0x08002b16:    6020         `      STR      r0,[r4,#0]
        0x08002b18:    6860        `h      LDR      r0,[r4,#4]
        0x08002b1a:    4240        @B      RSBS     r0,r0,#0
        0x08002b1c:    6060        ``      STR      r0,[r4,#4]
        0x08002b1e:    e7f5        ..      B        0x8002b0c ; RotaryEncoder_IRQ_Callback + 76
    $d
        0x08002b20:    40010c00    ...@    DCD    1073810432
        0x08002b24:    200000b0    ...     DCD    536871088
        0x08002b28:    3b9aca00    ...;    DCD    1000000000
    $t
    i.StartDefaultTask
    StartDefaultTask
        0x08002b2c:    f7fffb90    ....    BL       LCD_Init ; 0x8002250
        0x08002b30:    f7fffb8c    ....    BL       LCD_Clear ; 0x800224c
        0x08002b34:    f7fffb8e    ....    BL       LCD_Test ; 0x8002254
        0x08002b38:    e7fc        ..      B        0x8002b34 ; StartDefaultTask + 8
        0x08002b3a:    0000        ..      MOVS     r0,r0
    i.SysTick_Handler
    SysTick_Handler
        0x08002b3c:    b510        ..      PUSH     {r4,lr}
        0x08002b3e:    2050        P       MOVS     r0,#0x50
        0x08002b40:    f3808811    ....    MSR      BASEPRI,r0
        0x08002b44:    f3bf8f4f    ..O.    DSB      
        0x08002b48:    f3bf8f6f    ..o.    ISB      
        0x08002b4c:    f001fc1c    ....    BL       xTaskIncrementTick ; 0x8004388
        0x08002b50:    b118        ..      CBZ      r0,0x8002b5a ; SysTick_Handler + 30
        0x08002b52:    4904        .I      LDR      r1,[pc,#16] ; [0x8002b64] = 0xe000ed04
        0x08002b54:    f04f5080    O..P    MOV      r0,#0x10000000
        0x08002b58:    6008        .`      STR      r0,[r1,#0]
        0x08002b5a:    2000        .       MOVS     r0,#0
        0x08002b5c:    f3808811    ....    MSR      BASEPRI,r0
        0x08002b60:    bd10        ..      POP      {r4,pc}
    $d
        0x08002b62:    0000        ..      DCW    0
        0x08002b64:    e000ed04    ....    DCD    3758157060
    $t
    i.SystemClock_Config
    SystemClock_Config
        0x08002b68:    b530        0.      PUSH     {r4,r5,lr}
        0x08002b6a:    b093        ..      SUB      sp,sp,#0x4c
        0x08002b6c:    2128        (!      MOVS     r1,#0x28
        0x08002b6e:    4668        hF      MOV      r0,sp
        0x08002b70:    f7fdfb7e    ..~.    BL       __aeabi_memclr ; 0x8000270
        0x08002b74:    2114        .!      MOVS     r1,#0x14
        0x08002b76:    a80a        ..      ADD      r0,sp,#0x28
        0x08002b78:    f7fdfb7a    ..z.    BL       __aeabi_memclr ; 0x8000270
        0x08002b7c:    2400        .$      MOVS     r4,#0
        0x08002b7e:    2001        .       MOVS     r0,#1
        0x08002b80:    940f        ..      STR      r4,[sp,#0x3c]
        0x08002b82:    9410        ..      STR      r4,[sp,#0x40]
        0x08002b84:    9411        ..      STR      r4,[sp,#0x44]
        0x08002b86:    0401        ..      LSLS     r1,r0,#16
        0x08002b88:    9412        ..      STR      r4,[sp,#0x48]
        0x08002b8a:    e88d0013    ....    STM      sp,{r0,r1,r4}
        0x08002b8e:    9004        ..      STR      r0,[sp,#0x10]
        0x08002b90:    f44f10e0    O...    MOV      r0,#0x1c0000
        0x08002b94:    e9cd1008    ....    STRD     r1,r0,[sp,#0x20]
        0x08002b98:    2502        .%      MOVS     r5,#2
        0x08002b9a:    9507        ..      STR      r5,[sp,#0x1c]
        0x08002b9c:    4668        hF      MOV      r0,sp
        0x08002b9e:    f7fefaff    ....    BL       HAL_RCC_OscConfig ; 0x80011a0
        0x08002ba2:    b108        ..      CBZ      r0,0x8002ba8 ; SystemClock_Config + 64
        0x08002ba4:    b672        r.      CPSID    i
        0x08002ba6:    e7fe        ..      B        0x8002ba6 ; SystemClock_Config + 62
        0x08002ba8:    200f        .       MOVS     r0,#0xf
        0x08002baa:    e9cd050a    ....    STRD     r0,r5,[sp,#0x28]
        0x08002bae:    f44f6080    O..`    MOV      r0,#0x400
        0x08002bb2:    e9cd400c    ...@    STRD     r4,r0,[sp,#0x30]
        0x08002bb6:    2102        .!      MOVS     r1,#2
        0x08002bb8:    a80a        ..      ADD      r0,sp,#0x28
        0x08002bba:    940e        ..      STR      r4,[sp,#0x38]
        0x08002bbc:    f7fef9f4    ....    BL       HAL_RCC_ClockConfig ; 0x8000fa8
        0x08002bc0:    b108        ..      CBZ      r0,0x8002bc6 ; SystemClock_Config + 94
        0x08002bc2:    b672        r.      CPSID    i
        0x08002bc4:    e7fe        ..      B        0x8002bc4 ; SystemClock_Config + 92
        0x08002bc6:    2012        .       MOVS     r0,#0x12
        0x08002bc8:    900f        ..      STR      r0,[sp,#0x3c]
        0x08002bca:    f44f4000    O..@    MOV      r0,#0x8000
        0x08002bce:    e9cd0411    ....    STRD     r0,r4,[sp,#0x44]
        0x08002bd2:    a80f        ..      ADD      r0,sp,#0x3c
        0x08002bd4:    f7fef972    ..r.    BL       HAL_RCCEx_PeriphCLKConfig ; 0x8000ebc
        0x08002bd8:    2800        .(      CMP      r0,#0
        0x08002bda:    d001        ..      BEQ      0x8002be0 ; SystemClock_Config + 120
        0x08002bdc:    b672        r.      CPSID    i
        0x08002bde:    e7fe        ..      B        0x8002bde ; SystemClock_Config + 118
        0x08002be0:    b013        ..      ADD      sp,sp,#0x4c
        0x08002be2:    bd30        0.      POP      {r4,r5,pc}
    i.SystemInit
    SystemInit
        0x08002be4:    4770        pG      BX       lr
        0x08002be6:    0000        ..      MOVS     r0,r0
    i.TIM4_IRQHandler
    TIM4_IRQHandler
        0x08002be8:    4801        .H      LDR      r0,[pc,#4] ; [0x8002bf0] = 0x200005b4
        0x08002bea:    f7febe42    ..B.    B        HAL_TIM_IRQHandler ; 0x8001872
    $d
        0x08002bee:    0000        ..      DCW    0
        0x08002bf0:    200005b4    ...     DCD    536872372
    $t
    i.TIM_Base_SetConfig
    TIM_Base_SetConfig
        0x08002bf4:    b5f0        ..      PUSH     {r4-r7,lr}
        0x08002bf6:    6802        .h      LDR      r2,[r0,#0]
        0x08002bf8:    4b16        .K      LDR      r3,[pc,#88] ; [0x8002c54] = 0x40012c00
        0x08002bfa:    4c17        .L      LDR      r4,[pc,#92] ; [0x8002c58] = 0x40000400
        0x08002bfc:    4d17        .M      LDR      r5,[pc,#92] ; [0x8002c5c] = 0x40000800
        0x08002bfe:    f04f4780    O..G    MOV      r7,#0x40000000
        0x08002c02:    4298        .B      CMP      r0,r3
        0x08002c04:    d005        ..      BEQ      0x8002c12 ; TIM_Base_SetConfig + 30
        0x08002c06:    42b8        .B      CMP      r0,r7
        0x08002c08:    d003        ..      BEQ      0x8002c12 ; TIM_Base_SetConfig + 30
        0x08002c0a:    42a0        .B      CMP      r0,r4
        0x08002c0c:    d001        ..      BEQ      0x8002c12 ; TIM_Base_SetConfig + 30
        0x08002c0e:    42a8        .B      CMP      r0,r5
        0x08002c10:    d103        ..      BNE      0x8002c1a ; TIM_Base_SetConfig + 38
        0x08002c12:    f0220670    ".p.    BIC      r6,r2,#0x70
        0x08002c16:    684a        Jh      LDR      r2,[r1,#4]
        0x08002c18:    4332        2C      ORRS     r2,r2,r6
        0x08002c1a:    4298        .B      CMP      r0,r3
        0x08002c1c:    d005        ..      BEQ      0x8002c2a ; TIM_Base_SetConfig + 54
        0x08002c1e:    42b8        .B      CMP      r0,r7
        0x08002c20:    d003        ..      BEQ      0x8002c2a ; TIM_Base_SetConfig + 54
        0x08002c22:    42a0        .B      CMP      r0,r4
        0x08002c24:    d001        ..      BEQ      0x8002c2a ; TIM_Base_SetConfig + 54
        0x08002c26:    42a8        .B      CMP      r0,r5
        0x08002c28:    d103        ..      BNE      0x8002c32 ; TIM_Base_SetConfig + 62
        0x08002c2a:    f4227440    ".@t    BIC      r4,r2,#0x300
        0x08002c2e:    68ca        .h      LDR      r2,[r1,#0xc]
        0x08002c30:    4322        "C      ORRS     r2,r2,r4
        0x08002c32:    694c        Li      LDR      r4,[r1,#0x14]
        0x08002c34:    f0220280    "...    BIC      r2,r2,#0x80
        0x08002c38:    4322        "C      ORRS     r2,r2,r4
        0x08002c3a:    6002        .`      STR      r2,[r0,#0]
        0x08002c3c:    688a        .h      LDR      r2,[r1,#8]
        0x08002c3e:    62c2        .b      STR      r2,[r0,#0x2c]
        0x08002c40:    680a        .h      LDR      r2,[r1,#0]
        0x08002c42:    6282        .b      STR      r2,[r0,#0x28]
        0x08002c44:    4298        .B      CMP      r0,r3
        0x08002c46:    d101        ..      BNE      0x8002c4c ; TIM_Base_SetConfig + 88
        0x08002c48:    6909        .i      LDR      r1,[r1,#0x10]
        0x08002c4a:    6301        .c      STR      r1,[r0,#0x30]
        0x08002c4c:    2101        .!      MOVS     r1,#1
        0x08002c4e:    6141        Aa      STR      r1,[r0,#0x14]
        0x08002c50:    bdf0        ..      POP      {r4-r7,pc}
    $d
        0x08002c52:    0000        ..      DCW    0
        0x08002c54:    40012c00    .,.@    DCD    1073818624
        0x08002c58:    40000400    ...@    DCD    1073742848
        0x08002c5c:    40000800    ...@    DCD    1073743872
    $t
    i.TIM_ETR_SetConfig
    TIM_ETR_SetConfig
        0x08002c60:    b510        ..      PUSH     {r4,lr}
        0x08002c62:    6884        .h      LDR      r4,[r0,#8]
        0x08002c64:    ea422203    B.."    ORR      r2,r2,r3,LSL #8
        0x08002c68:    f424447f    $..D    BIC      r4,r4,#0xff00
        0x08002c6c:    430a        .C      ORRS     r2,r2,r1
        0x08002c6e:    4322        "C      ORRS     r2,r2,r4
        0x08002c70:    6082        .`      STR      r2,[r0,#8]
        0x08002c72:    bd10        ..      POP      {r4,pc}
    i.TIM_ITRx_SetConfig
    TIM_ITRx_SetConfig
        0x08002c74:    6882        .h      LDR      r2,[r0,#8]
        0x08002c76:    f0220270    ".p.    BIC      r2,r2,#0x70
        0x08002c7a:    430a        .C      ORRS     r2,r2,r1
        0x08002c7c:    f0420107    B...    ORR      r1,r2,#7
        0x08002c80:    6081        .`      STR      r1,[r0,#8]
        0x08002c82:    4770        pG      BX       lr
    i.TIM_OC1_SetConfig
    TIM_OC1_SetConfig
        0x08002c84:    b530        0.      PUSH     {r4,r5,lr}
        0x08002c86:    6a03        .j      LDR      r3,[r0,#0x20]
        0x08002c88:    6a02        .j      LDR      r2,[r0,#0x20]
        0x08002c8a:    f0220201    "...    BIC      r2,r2,#1
        0x08002c8e:    6202        .b      STR      r2,[r0,#0x20]
        0x08002c90:    6842        Bh      LDR      r2,[r0,#4]
        0x08002c92:    6984        .i      LDR      r4,[r0,#0x18]
        0x08002c94:    f0240573    $.s.    BIC      r5,r4,#0x73
        0x08002c98:    680c        .h      LDR      r4,[r1,#0]
        0x08002c9a:    432c        ,C      ORRS     r4,r4,r5
        0x08002c9c:    f0230502    #...    BIC      r5,r3,#2
        0x08002ca0:    688b        .h      LDR      r3,[r1,#8]
        0x08002ca2:    432b        +C      ORRS     r3,r3,r5
        0x08002ca4:    4d0a        .M      LDR      r5,[pc,#40] ; [0x8002cd0] = 0x40012c00
        0x08002ca6:    42a8        .B      CMP      r0,r5
        0x08002ca8:    d10b        ..      BNE      0x8002cc2 ; TIM_OC1_SetConfig + 62
        0x08002caa:    f0230508    #...    BIC      r5,r3,#8
        0x08002cae:    68cb        .h      LDR      r3,[r1,#0xc]
        0x08002cb0:    f4227240    ".@r    BIC      r2,r2,#0x300
        0x08002cb4:    432b        +C      ORRS     r3,r3,r5
        0x08002cb6:    694d        Mi      LDR      r5,[r1,#0x14]
        0x08002cb8:    f0230304    #...    BIC      r3,r3,#4
        0x08002cbc:    4315        .C      ORRS     r5,r5,r2
        0x08002cbe:    698a        .i      LDR      r2,[r1,#0x18]
        0x08002cc0:    432a        *C      ORRS     r2,r2,r5
        0x08002cc2:    6042        B`      STR      r2,[r0,#4]
        0x08002cc4:    6184        .a      STR      r4,[r0,#0x18]
        0x08002cc6:    6849        Ih      LDR      r1,[r1,#4]
        0x08002cc8:    6341        Ac      STR      r1,[r0,#0x34]
        0x08002cca:    6203        .b      STR      r3,[r0,#0x20]
        0x08002ccc:    bd30        0.      POP      {r4,r5,pc}
    $d
        0x08002cce:    0000        ..      DCW    0
        0x08002cd0:    40012c00    .,.@    DCD    1073818624
    $t
    i.TIM_OC2_SetConfig
    TIM_OC2_SetConfig
        0x08002cd4:    b530        0.      PUSH     {r4,r5,lr}
        0x08002cd6:    6a02        .j      LDR      r2,[r0,#0x20]
        0x08002cd8:    6a03        .j      LDR      r3,[r0,#0x20]
        0x08002cda:    f0230310    #...    BIC      r3,r3,#0x10
        0x08002cde:    6203        .b      STR      r3,[r0,#0x20]
        0x08002ce0:    6843        Ch      LDR      r3,[r0,#4]
        0x08002ce2:    6984        .i      LDR      r4,[r0,#0x18]
        0x08002ce4:    680d        .h      LDR      r5,[r1,#0]
        0x08002ce6:    f42444e6    $..D    BIC      r4,r4,#0x7300
        0x08002cea:    ea442405    D..$    ORR      r4,r4,r5,LSL #8
        0x08002cee:    688d        .h      LDR      r5,[r1,#8]
        0x08002cf0:    f0220220    ". .    BIC      r2,r2,#0x20
        0x08002cf4:    ea421205    B...    ORR      r2,r2,r5,LSL #4
        0x08002cf8:    4d0b        .M      LDR      r5,[pc,#44] ; [0x8002d28] = 0x40012c00
        0x08002cfa:    42a8        .B      CMP      r0,r5
        0x08002cfc:    d10e        ..      BNE      0x8002d1c ; TIM_OC2_SetConfig + 72
        0x08002cfe:    68cd        .h      LDR      r5,[r1,#0xc]
        0x08002d00:    f0220280    "...    BIC      r2,r2,#0x80
        0x08002d04:    ea421205    B...    ORR      r2,r2,r5,LSL #4
        0x08002d08:    694d        Mi      LDR      r5,[r1,#0x14]
        0x08002d0a:    f4236340    #.@c    BIC      r3,r3,#0xc00
        0x08002d0e:    ea430385    C...    ORR      r3,r3,r5,LSL #2
        0x08002d12:    698d        .i      LDR      r5,[r1,#0x18]
        0x08002d14:    f0220240    ".@.    BIC      r2,r2,#0x40
        0x08002d18:    ea430385    C...    ORR      r3,r3,r5,LSL #2
        0x08002d1c:    6043        C`      STR      r3,[r0,#4]
        0x08002d1e:    6184        .a      STR      r4,[r0,#0x18]
        0x08002d20:    6849        Ih      LDR      r1,[r1,#4]
        0x08002d22:    6381        .c      STR      r1,[r0,#0x38]
        0x08002d24:    6202        .b      STR      r2,[r0,#0x20]
        0x08002d26:    bd30        0.      POP      {r4,r5,pc}
    $d
        0x08002d28:    40012c00    .,.@    DCD    1073818624
    $t
    i.TIM_OC3_SetConfig
    TIM_OC3_SetConfig
        0x08002d2c:    b530        0.      PUSH     {r4,r5,lr}
        0x08002d2e:    6a03        .j      LDR      r3,[r0,#0x20]
        0x08002d30:    6a02        .j      LDR      r2,[r0,#0x20]
        0x08002d32:    f4227280    "..r    BIC      r2,r2,#0x100
        0x08002d36:    6202        .b      STR      r2,[r0,#0x20]
        0x08002d38:    6842        Bh      LDR      r2,[r0,#4]
        0x08002d3a:    69c4        .i      LDR      r4,[r0,#0x1c]
        0x08002d3c:    f4237300    #..s    BIC      r3,r3,#0x200
        0x08002d40:    f0240573    $.s.    BIC      r5,r4,#0x73
        0x08002d44:    680c        .h      LDR      r4,[r1,#0]
        0x08002d46:    432c        ,C      ORRS     r4,r4,r5
        0x08002d48:    688d        .h      LDR      r5,[r1,#8]
        0x08002d4a:    ea432305    C..#    ORR      r3,r3,r5,LSL #8
        0x08002d4e:    4d0c        .M      LDR      r5,[pc,#48] ; [0x8002d80] = 0x40012c00
        0x08002d50:    42a8        .B      CMP      r0,r5
        0x08002d52:    d10e        ..      BNE      0x8002d72 ; TIM_OC3_SetConfig + 70
        0x08002d54:    68cd        .h      LDR      r5,[r1,#0xc]
        0x08002d56:    f4236300    #..c    BIC      r3,r3,#0x800
        0x08002d5a:    ea432305    C..#    ORR      r3,r3,r5,LSL #8
        0x08002d5e:    694d        Mi      LDR      r5,[r1,#0x14]
        0x08002d60:    f4225240    ".@R    BIC      r2,r2,#0x3000
        0x08002d64:    ea421205    B...    ORR      r2,r2,r5,LSL #4
        0x08002d68:    698d        .i      LDR      r5,[r1,#0x18]
        0x08002d6a:    f4236380    #..c    BIC      r3,r3,#0x400
        0x08002d6e:    ea421205    B...    ORR      r2,r2,r5,LSL #4
        0x08002d72:    6042        B`      STR      r2,[r0,#4]
        0x08002d74:    61c4        .a      STR      r4,[r0,#0x1c]
        0x08002d76:    6849        Ih      LDR      r1,[r1,#4]
        0x08002d78:    63c1        .c      STR      r1,[r0,#0x3c]
        0x08002d7a:    6203        .b      STR      r3,[r0,#0x20]
        0x08002d7c:    bd30        0.      POP      {r4,r5,pc}
    $d
        0x08002d7e:    0000        ..      DCW    0
        0x08002d80:    40012c00    .,.@    DCD    1073818624
    $t
    i.TIM_OC4_SetConfig
    TIM_OC4_SetConfig
        0x08002d84:    b530        0.      PUSH     {r4,r5,lr}
        0x08002d86:    6a04        .j      LDR      r4,[r0,#0x20]
        0x08002d88:    6a02        .j      LDR      r2,[r0,#0x20]
        0x08002d8a:    f4225280    "..R    BIC      r2,r2,#0x1000
        0x08002d8e:    6202        .b      STR      r2,[r0,#0x20]
        0x08002d90:    6842        Bh      LDR      r2,[r0,#4]
        0x08002d92:    69c3        .i      LDR      r3,[r0,#0x1c]
        0x08002d94:    680d        .h      LDR      r5,[r1,#0]
        0x08002d96:    f42343e6    #..C    BIC      r3,r3,#0x7300
        0x08002d9a:    ea432305    C..#    ORR      r3,r3,r5,LSL #8
        0x08002d9e:    688d        .h      LDR      r5,[r1,#8]
        0x08002da0:    f4245400    $..T    BIC      r4,r4,#0x2000
        0x08002da4:    ea443405    D..4    ORR      r4,r4,r5,LSL #12
        0x08002da8:    4d06        .M      LDR      r5,[pc,#24] ; [0x8002dc4] = 0x40012c00
        0x08002daa:    42a8        .B      CMP      r0,r5
        0x08002dac:    d104        ..      BNE      0x8002db8 ; TIM_OC4_SetConfig + 52
        0x08002dae:    694d        Mi      LDR      r5,[r1,#0x14]
        0x08002db0:    f4224280    "..B    BIC      r2,r2,#0x4000
        0x08002db4:    ea421285    B...    ORR      r2,r2,r5,LSL #6
        0x08002db8:    6042        B`      STR      r2,[r0,#4]
        0x08002dba:    61c3        .a      STR      r3,[r0,#0x1c]
        0x08002dbc:    6849        Ih      LDR      r1,[r1,#4]
        0x08002dbe:    6401        .d      STR      r1,[r0,#0x40]
        0x08002dc0:    6204        .b      STR      r4,[r0,#0x20]
        0x08002dc2:    bd30        0.      POP      {r4,r5,pc}
    $d
        0x08002dc4:    40012c00    .,.@    DCD    1073818624
    $t
    i.TIM_TI1_ConfigInputStage
    TIM_TI1_ConfigInputStage
        0x08002dc8:    b510        ..      PUSH     {r4,lr}
        0x08002dca:    6a03        .j      LDR      r3,[r0,#0x20]
        0x08002dcc:    6a04        .j      LDR      r4,[r0,#0x20]
        0x08002dce:    f0240401    $...    BIC      r4,r4,#1
        0x08002dd2:    6204        .b      STR      r4,[r0,#0x20]
        0x08002dd4:    6984        .i      LDR      r4,[r0,#0x18]
        0x08002dd6:    f02404f0    $...    BIC      r4,r4,#0xf0
        0x08002dda:    ea441402    D...    ORR      r4,r4,r2,LSL #4
        0x08002dde:    f023020a    #...    BIC      r2,r3,#0xa
        0x08002de2:    430a        .C      ORRS     r2,r2,r1
        0x08002de4:    6184        .a      STR      r4,[r0,#0x18]
        0x08002de6:    6202        .b      STR      r2,[r0,#0x20]
        0x08002de8:    bd10        ..      POP      {r4,pc}
    i.TIM_TI2_ConfigInputStage
    TIM_TI2_ConfigInputStage
        0x08002dea:    b510        ..      PUSH     {r4,lr}
        0x08002dec:    6a03        .j      LDR      r3,[r0,#0x20]
        0x08002dee:    6a04        .j      LDR      r4,[r0,#0x20]
        0x08002df0:    f0240410    $...    BIC      r4,r4,#0x10
        0x08002df4:    6204        .b      STR      r4,[r0,#0x20]
        0x08002df6:    6984        .i      LDR      r4,[r0,#0x18]
        0x08002df8:    f02303a0    #...    BIC      r3,r3,#0xa0
        0x08002dfc:    f4244470    $.pD    BIC      r4,r4,#0xf000
        0x08002e00:    ea443202    D..2    ORR      r2,r4,r2,LSL #12
        0x08002e04:    ea431101    C...    ORR      r1,r3,r1,LSL #4
        0x08002e08:    6182        .a      STR      r2,[r0,#0x18]
        0x08002e0a:    6201        .b      STR      r1,[r0,#0x20]
        0x08002e0c:    bd10        ..      POP      {r4,pc}
        0x08002e0e:    0000        ..      MOVS     r0,r0
    i.UART_SetConfig
    UART_SetConfig
        0x08002e10:    b570        p.      PUSH     {r4-r6,lr}
        0x08002e12:    4604        .F      MOV      r4,r0
        0x08002e14:    6800        .h      LDR      r0,[r0,#0]
        0x08002e16:    6901        .i      LDR      r1,[r0,#0x10]
        0x08002e18:    68e2        .h      LDR      r2,[r4,#0xc]
        0x08002e1a:    f4215140    !.@Q    BIC      r1,r1,#0x3000
        0x08002e1e:    4311        .C      ORRS     r1,r1,r2
        0x08002e20:    6101        .a      STR      r1,[r0,#0x10]
        0x08002e22:    6921        !i      LDR      r1,[r4,#0x10]
        0x08002e24:    68a0        .h      LDR      r0,[r4,#8]
        0x08002e26:    4308        .C      ORRS     r0,r0,r1
        0x08002e28:    6961        ai      LDR      r1,[r4,#0x14]
        0x08002e2a:    4308        .C      ORRS     r0,r0,r1
        0x08002e2c:    6821        !h      LDR      r1,[r4,#0]
        0x08002e2e:    68ca        .h      LDR      r2,[r1,#0xc]
        0x08002e30:    f241630c    A..c    MOV      r3,#0x160c
        0x08002e34:    439a        .C      BICS     r2,r2,r3
        0x08002e36:    4302        .C      ORRS     r2,r2,r0
        0x08002e38:    60ca        .`      STR      r2,[r1,#0xc]
        0x08002e3a:    6820         h      LDR      r0,[r4,#0]
        0x08002e3c:    6941        Ai      LDR      r1,[r0,#0x14]
        0x08002e3e:    69a2        .i      LDR      r2,[r4,#0x18]
        0x08002e40:    f4217140    !.@q    BIC      r1,r1,#0x300
        0x08002e44:    4311        .C      ORRS     r1,r1,r2
        0x08002e46:    6141        Aa      STR      r1,[r0,#0x14]
        0x08002e48:    491e        .I      LDR      r1,[pc,#120] ; [0x8002ec4] = 0x40013800
        0x08002e4a:    6820         h      LDR      r0,[r4,#0]
        0x08002e4c:    4288        .B      CMP      r0,r1
        0x08002e4e:    d102        ..      BNE      0x8002e56 ; UART_SetConfig + 70
        0x08002e50:    f7fef970    ..p.    BL       HAL_RCC_GetPCLK2Freq ; 0x8001134
        0x08002e54:    e001        ..      B        0x8002e5a ; UART_SetConfig + 74
        0x08002e56:    f7fef95d    ..].    BL       HAL_RCC_GetPCLK1Freq ; 0x8001114
        0x08002e5a:    eb0001c0    ....    ADD      r1,r0,r0,LSL #3
        0x08002e5e:    eb011200    ....    ADD      r2,r1,r0,LSL #4
        0x08002e62:    6860        `h      LDR      r0,[r4,#4]
        0x08002e64:    2164        d!      MOVS     r1,#0x64
        0x08002e66:    0080        ..      LSLS     r0,r0,#2
        0x08002e68:    fbb2f3f0    ....    UDIV     r3,r2,r0
        0x08002e6c:    fbb3f3f1    ....    UDIV     r3,r3,r1
        0x08002e70:    f06f0618    o...    MVN      r6,#0x18
        0x08002e74:    4373        sC      MULS     r3,r6,r3
        0x08002e76:    fbb2f5f0    ....    UDIV     r5,r2,r0
        0x08002e7a:    fbb2f6f0    ....    UDIV     r6,r2,r0
        0x08002e7e:    eb050583    ....    ADD      r5,r5,r3,LSL #2
        0x08002e82:    2332        2#      MOVS     r3,#0x32
        0x08002e84:    eb031505    ....    ADD      r5,r3,r5,LSL #4
        0x08002e88:    fbb5f5f1    ....    UDIV     r5,r5,r1
        0x08002e8c:    fbb6f6f1    ....    UDIV     r6,r6,r1
        0x08002e90:    f00505f0    ....    AND      r5,r5,#0xf0
        0x08002e94:    eb051506    ....    ADD      r5,r5,r6,LSL #4
        0x08002e98:    fbb2f6f0    ....    UDIV     r6,r2,r0
        0x08002e9c:    fbb2f0f0    ....    UDIV     r0,r2,r0
        0x08002ea0:    fbb0f0f1    ....    UDIV     r0,r0,r1
        0x08002ea4:    f06f0218    o...    MVN      r2,#0x18
        0x08002ea8:    4350        PC      MULS     r0,r2,r0
        0x08002eaa:    eb060080    ....    ADD      r0,r6,r0,LSL #2
        0x08002eae:    eb031000    ....    ADD      r0,r3,r0,LSL #4
        0x08002eb2:    fbb0f0f1    ....    UDIV     r0,r0,r1
        0x08002eb6:    6821        !h      LDR      r1,[r4,#0]
        0x08002eb8:    f000000f    ....    AND      r0,r0,#0xf
        0x08002ebc:    4428        (D      ADD      r0,r0,r5
        0x08002ebe:    6088        .`      STR      r0,[r1,#8]
        0x08002ec0:    bd70        p.      POP      {r4-r6,pc}
    $d
        0x08002ec2:    0000        ..      DCW    0
        0x08002ec4:    40013800    .8.@    DCD    1073821696
    $t
    i.USB_CoreInit
    USB_CoreInit
        0x08002ec8:    2000        .       MOVS     r0,#0
        0x08002eca:    4770        pG      BX       lr
    i.USB_DevDisconnect
    USB_DevDisconnect
        0x08002ecc:    2000        .       MOVS     r0,#0
        0x08002ece:    4770        pG      BX       lr
    i.USB_DevInit
    USB_DevInit
        0x08002ed0:    2101        .!      MOVS     r1,#1
        0x08002ed2:    f8201f40     .@.    STRH     r1,[r0,#0x40]!
        0x08002ed6:    2100        .!      MOVS     r1,#0
        0x08002ed8:    8001        ..      STRH     r1,[r0,#0]
        0x08002eda:    8081        ..      STRH     r1,[r0,#4]
        0x08002edc:    8201        ..      STRH     r1,[r0,#0x10]
        0x08002ede:    4608        .F      MOV      r0,r1
        0x08002ee0:    4770        pG      BX       lr
    i.USB_DisableGlobalInt
    USB_DisableGlobalInt
        0x08002ee2:    f8301f40    0.@.    LDRH     r1,[r0,#0x40]!
        0x08002ee6:    f421413f    !.?A    BIC      r1,r1,#0xbf00
        0x08002eea:    8001        ..      STRH     r1,[r0,#0]
        0x08002eec:    2000        .       MOVS     r0,#0
        0x08002eee:    4770        pG      BX       lr
    i.USB_SetCurrentMode
    USB_SetCurrentMode
        0x08002ef0:    2000        .       MOVS     r0,#0
        0x08002ef2:    4770        pG      BX       lr
    i.UsageFault_Handler
    UsageFault_Handler
        0x08002ef4:    e7fe        ..      B        UsageFault_Handler ; 0x8002ef4
    i.__NVIC_SetPriority
    __NVIC_SetPriority
        0x08002ef6:    0709        ..      LSLS     r1,r1,#28
        0x08002ef8:    0e09        ..      LSRS     r1,r1,#24
        0x08002efa:    2800        .(      CMP      r0,#0
        0x08002efc:    db04        ..      BLT      0x8002f08 ; __NVIC_SetPriority + 18
        0x08002efe:    f10020e0    ...     ADD      r0,r0,#0xe000e000
        0x08002f02:    f8801400    ....    STRB     r1,[r0,#0x400]
        0x08002f06:    4770        pG      BX       lr
        0x08002f08:    f000000f    ....    AND      r0,r0,#0xf
        0x08002f0c:    f10020e0    ...     ADD      r0,r0,#0xe000e000
        0x08002f10:    f8801d14    ....    STRB     r1,[r0,#0xd14]
        0x08002f14:    4770        pG      BX       lr
    i.__scatterload_copy
    __scatterload_copy
        0x08002f16:    e002        ..      B        0x8002f1e ; __scatterload_copy + 8
        0x08002f18:    c808        ..      LDM      r0!,{r3}
        0x08002f1a:    1f12        ..      SUBS     r2,r2,#4
        0x08002f1c:    c108        ..      STM      r1!,{r3}
        0x08002f1e:    2a00        .*      CMP      r2,#0
        0x08002f20:    d1fa        ..      BNE      0x8002f18 ; __scatterload_copy + 2
        0x08002f22:    4770        pG      BX       lr
    i.__scatterload_null
    __scatterload_null
        0x08002f24:    4770        pG      BX       lr
    i.__scatterload_zeroinit
    __scatterload_zeroinit
        0x08002f26:    2000        .       MOVS     r0,#0
        0x08002f28:    e001        ..      B        0x8002f2e ; __scatterload_zeroinit + 8
        0x08002f2a:    c101        ..      STM      r1!,{r0}
        0x08002f2c:    1f12        ..      SUBS     r2,r2,#4
        0x08002f2e:    2a00        .*      CMP      r2,#0
        0x08002f30:    d1fb        ..      BNE      0x8002f2a ; __scatterload_zeroinit + 4
        0x08002f32:    4770        pG      BX       lr
    i.add
    add
        0x08002f34:    b503        ..      PUSH     {r0,r1,lr}
        0x08002f36:    b081        ..      SUB      sp,sp,#4
        0x08002f38:    e9dd0101    ....    LDRD     r0,r1,[sp,#4]
        0x08002f3c:    4408        .D      ADD      r0,r0,r1
        0x08002f3e:    9000        ..      STR      r0,[sp,#0]
        0x08002f40:    bd0e        ..      POP      {r1-r3,pc}
    i.main
    main
        0x08002f42:    f7fdfe77    ..w.    BL       HAL_Init ; 0x8000c34
        0x08002f46:    f7fffe0f    ....    BL       SystemClock_Config ; 0x8002b68
        0x08002f4a:    f7fffa1d    ....    BL       MX_GPIO_Init ; 0x8002388
        0x08002f4e:    f7fffac3    ....    BL       MX_I2C1_Init ; 0x80024d8
        0x08002f52:    f7fff9cf    ....    BL       MX_ADC1_Init ; 0x80022f4
        0x08002f56:    f7fffadf    ....    BL       MX_SPI1_Init ; 0x8002518
        0x08002f5a:    f7fffc1f    ....    BL       MX_USB_PCD_Init ; 0x800279c
        0x08002f5e:    f7fffaff    ....    BL       MX_TIM1_Init ; 0x8002560
        0x08002f62:    f7fffb65    ..e.    BL       MX_TIM2_Init ; 0x8002630
        0x08002f66:    f7fffbc1    ....    BL       MX_TIM3_Init ; 0x80026ec
        0x08002f6a:    f7fffbfb    ....    BL       MX_USART1_UART_Init ; 0x8002764
        0x08002f6e:    f000f813    ....    BL       osKernelInitialize ; 0x8002f98
        0x08002f72:    f7fff9e7    ....    BL       MX_FREERTOS_Init ; 0x8002344
        0x08002f76:    f000f82b    ..+.    BL       osKernelStart ; 0x8002fd0
        0x08002f7a:    e7fe        ..      B        0x8002f7a ; main + 56
    i.mdelay
    mdelay
        0x08002f7c:    b570        p.      PUSH     {r4-r6,lr}
        0x08002f7e:    4605        .F      MOV      r5,r0
        0x08002f80:    2400        .$      MOVS     r4,#0
        0x08002f82:    f44f767a    O.zv    MOV      r6,#0x3e8
        0x08002f86:    e003        ..      B        0x8002f90 ; mdelay + 20
        0x08002f88:    4630        0F      MOV      r0,r6
        0x08002f8a:    f000fcd5    ....    BL       udelay ; 0x8003938
        0x08002f8e:    1c64        d.      ADDS     r4,r4,#1
        0x08002f90:    42ac        .B      CMP      r4,r5
        0x08002f92:    dbf9        ..      BLT      0x8002f88 ; mdelay + 12
        0x08002f94:    bd70        p.      POP      {r4-r6,pc}
        0x08002f96:    0000        ..      MOVS     r0,r0
    i.osKernelInitialize
    osKernelInitialize
        0x08002f98:    f3ef8005    ....    MRS      r0,IPSR
        0x08002f9c:    b958        X.      CBNZ     r0,0x8002fb6 ; osKernelInitialize + 30
        0x08002f9e:    f3ef8010    ....    MRS      r0,PRIMASK
        0x08002fa2:    b940        @.      CBNZ     r0,0x8002fb6 ; osKernelInitialize + 30
        0x08002fa4:    4909        .I      LDR      r1,[pc,#36] ; [0x8002fcc] = 0x20000064
        0x08002fa6:    6808        .h      LDR      r0,[r1,#0]
        0x08002fa8:    2802        .(      CMP      r0,#2
        0x08002faa:    d001        ..      BEQ      0x8002fb0 ; osKernelInitialize + 24
        0x08002fac:    b130        0.      CBZ      r0,0x8002fbc ; osKernelInitialize + 36
        0x08002fae:    e009        ..      B        0x8002fc4 ; osKernelInitialize + 44
        0x08002fb0:    f3ef8011    ....    MRS      r0,BASEPRI
        0x08002fb4:    b130        0.      CBZ      r0,0x8002fc4 ; osKernelInitialize + 44
        0x08002fb6:    f06f0005    o...    MVN      r0,#5
        0x08002fba:    4770        pG      BX       lr
        0x08002fbc:    2001        .       MOVS     r0,#1
        0x08002fbe:    6008        .`      STR      r0,[r1,#0]
        0x08002fc0:    2000        .       MOVS     r0,#0
        0x08002fc2:    4770        pG      BX       lr
        0x08002fc4:    f04f30ff    O..0    MOV      r0,#0xffffffff
        0x08002fc8:    4770        pG      BX       lr
    $d
        0x08002fca:    0000        ..      DCW    0
        0x08002fcc:    20000064    d..     DCD    536871012
    $t
    i.osKernelStart
    osKernelStart
        0x08002fd0:    b510        ..      PUSH     {r4,lr}
        0x08002fd2:    f3ef8005    ....    MRS      r0,IPSR
        0x08002fd6:    b960        `.      CBNZ     r0,0x8002ff2 ; osKernelStart + 34
        0x08002fd8:    f3ef8010    ....    MRS      r0,PRIMASK
        0x08002fdc:    b948        H.      CBNZ     r0,0x8002ff2 ; osKernelStart + 34
        0x08002fde:    490b        .I      LDR      r1,[pc,#44] ; [0x800300c] = 0x20000064
        0x08002fe0:    6808        .h      LDR      r0,[r1,#0]
        0x08002fe2:    2802        .(      CMP      r0,#2
        0x08002fe4:    d002        ..      BEQ      0x8002fec ; osKernelStart + 28
        0x08002fe6:    2801        .(      CMP      r0,#1
        0x08002fe8:    d006        ..      BEQ      0x8002ff8 ; osKernelStart + 40
        0x08002fea:    e00b        ..      B        0x8003004 ; osKernelStart + 52
        0x08002fec:    f3ef8011    ....    MRS      r0,BASEPRI
        0x08002ff0:    b140        @.      CBZ      r0,0x8003004 ; osKernelStart + 52
        0x08002ff2:    f06f0005    o...    MVN      r0,#5
        0x08002ff6:    bd10        ..      POP      {r4,pc}
        0x08002ff8:    2002        .       MOVS     r0,#2
        0x08002ffa:    6008        .`      STR      r0,[r1,#0]
        0x08002ffc:    f000fe2a    ..*.    BL       vTaskStartScheduler ; 0x8003c54
        0x08003000:    2000        .       MOVS     r0,#0
        0x08003002:    bd10        ..      POP      {r4,pc}
        0x08003004:    f04f30ff    O..0    MOV      r0,#0xffffffff
        0x08003008:    bd10        ..      POP      {r4,pc}
    $d
        0x0800300a:    0000        ..      DCW    0
        0x0800300c:    20000064    d..     DCD    536871012
    $t
    i.osThreadNew
    osThreadNew
        0x08003010:    b5f0        ..      PUSH     {r4-r7,lr}
        0x08003012:    b085        ..      SUB      sp,sp,#0x14
        0x08003014:    ea4f0301    O...    MOV.W    r3,r1
        0x08003018:    f04f0400    O...    MOV      r4,#0
        0x0800301c:    f3ef8105    ....    MRS      r1,IPSR
        0x08003020:    9403        ..      STR      r4,[sp,#0xc]
        0x08003022:    bba1        ..      CBNZ     r1,0x800308e ; osThreadNew + 126
        0x08003024:    f3ef8110    ....    MRS      r1,PRIMASK
        0x08003028:    bb89        ..      CBNZ     r1,0x800308e ; osThreadNew + 126
        0x0800302a:    4921        !I      LDR      r1,[pc,#132] ; [0x80030b0] = 0x20000064
        0x0800302c:    6809        .h      LDR      r1,[r1,#0]
        0x0800302e:    2902        .)      CMP      r1,#2
        0x08003030:    d102        ..      BNE      0x8003038 ; osThreadNew + 40
        0x08003032:    f3ef8111    ....    MRS      r1,BASEPRI
        0x08003036:    bb51        Q.      CBNZ     r1,0x800308e ; osThreadNew + 126
        0x08003038:    b348        H.      CBZ      r0,0x800308e ; osThreadNew + 126
        0x0800303a:    2680        .&      MOVS     r6,#0x80
        0x0800303c:    2118        .!      MOVS     r1,#0x18
        0x0800303e:    f88d4010    ...@    STRB     r4,[sp,#0x10]
        0x08003042:    ad04        ..      ADD      r5,sp,#0x10
        0x08003044:    b342        B.      CBZ      r2,0x8003098 ; osThreadNew + 136
        0x08003046:    6817        .h      LDR      r7,[r2,#0]
        0x08003048:    b107        ..      CBZ      r7,0x800304c ; osThreadNew + 60
        0x0800304a:    463d        =F      MOV      r5,r7
        0x0800304c:    6997        .i      LDR      r7,[r2,#0x18]
        0x0800304e:    b11f        ..      CBZ      r7,0x8003058 ; osThreadNew + 72
        0x08003050:    4639        9F      MOV      r1,r7
        0x08003052:    1e7f        ..      SUBS     r7,r7,#1
        0x08003054:    2f38        8/      CMP      r7,#0x38
        0x08003056:    d202        ..      BCS      0x800305e ; osThreadNew + 78
        0x08003058:    7917        .y      LDRB     r7,[r2,#4]
        0x0800305a:    07ff        ..      LSLS     r7,r7,#31
        0x0800305c:    d002        ..      BEQ      0x8003064 ; osThreadNew + 84
        0x0800305e:    2000        .       MOVS     r0,#0
        0x08003060:    b005        ..      ADD      sp,sp,#0x14
        0x08003062:    bdf0        ..      POP      {r4-r7,pc}
        0x08003064:    6957        Wi      LDR      r7,[r2,#0x14]
        0x08003066:    b107        ..      CBZ      r7,0x800306a ; osThreadNew + 90
        0x08003068:    08be        ..      LSRS     r6,r7,#2
        0x0800306a:    f8d2c008    ....    LDR      r12,[r2,#8]
        0x0800306e:    f1bc0f00    ....    CMP      r12,#0
        0x08003072:    d00d        ..      BEQ      0x8003090 ; osThreadNew + 128
        0x08003074:    68d4        .h      LDR      r4,[r2,#0xc]
        0x08003076:    2c5c        \,      CMP      r4,#0x5c
        0x08003078:    d318        ..      BCC      0x80030ac ; osThreadNew + 156
        0x0800307a:    6912        .i      LDR      r2,[r2,#0x10]
        0x0800307c:    b13a        :.      CBZ      r2,0x800308e ; osThreadNew + 126
        0x0800307e:    b137        7.      CBZ      r7,0x800308e ; osThreadNew + 126
        0x08003080:    e88d1006    ....    STM      sp,{r1,r2,r12}
        0x08003084:    4632        2F      MOV      r2,r6
        0x08003086:    4629        )F      MOV      r1,r5
        0x08003088:    f001f93f    ..?.    BL       xTaskCreateStatic ; 0x800430a
        0x0800308c:    9003        ..      STR      r0,[sp,#0xc]
        0x0800308e:    e00d        ..      B        0x80030ac ; osThreadNew + 156
        0x08003090:    68d7        .h      LDR      r7,[r2,#0xc]
        0x08003092:    b95f        _.      CBNZ     r7,0x80030ac ; osThreadNew + 156
        0x08003094:    6912        .i      LDR      r2,[r2,#0x10]
        0x08003096:    b94a        J.      CBNZ     r2,0x80030ac ; osThreadNew + 156
        0x08003098:    aa03        ..      ADD      r2,sp,#0xc
        0x0800309a:    e9cd1200    ....    STRD     r1,r2,[sp,#0]
        0x0800309e:    b2b2        ..      UXTH     r2,r6
        0x080030a0:    4629        )F      MOV      r1,r5
        0x080030a2:    f001f905    ....    BL       xTaskCreate ; 0x80042b0
        0x080030a6:    2801        .(      CMP      r0,#1
        0x080030a8:    d000        ..      BEQ      0x80030ac ; osThreadNew + 156
        0x080030aa:    9403        ..      STR      r4,[sp,#0xc]
        0x080030ac:    9803        ..      LDR      r0,[sp,#0xc]
        0x080030ae:    e7d7        ..      B        0x8003060 ; osThreadNew + 80
    $d
        0x080030b0:    20000064    d..     DCD    536871012
    $t
    i.prvAddCurrentTaskToDelayedList
    prvAddCurrentTaskToDelayedList
        0x080030b4:    e92d41f0    -..A    PUSH     {r4-r8,lr}
        0x080030b8:    4c13        .L      LDR      r4,[pc,#76] ; [0x8003108] = 0x20000014
        0x080030ba:    460f        .F      MOV      r7,r1
        0x080030bc:    4605        .F      MOV      r5,r0
        0x080030be:    6966        fi      LDR      r6,[r4,#0x14]
        0x080030c0:    6820         h      LDR      r0,[r4,#0]
        0x080030c2:    1d00        ..      ADDS     r0,r0,#4
        0x080030c4:    f000fc54    ..T.    BL       uxListRemove ; 0x8003970
        0x080030c8:    1c68        h.      ADDS     r0,r5,#1
        0x080030ca:    d107        ..      BNE      0x80030dc ; prvAddCurrentTaskToDelayedList + 40
        0x080030cc:    b137        7.      CBZ      r7,0x80030dc ; prvAddCurrentTaskToDelayedList + 40
        0x080030ce:    6821        !h      LDR      r1,[r4,#0]
        0x080030d0:    e8bd41f0    ...A    POP      {r4-r8,lr}
        0x080030d4:    480d        .H      LDR      r0,[pc,#52] ; [0x800310c] = 0x20000aec
        0x080030d6:    1d09        ..      ADDS     r1,r1,#4
        0x080030d8:    f000bc9a    ....    B.W      vListInsertEnd ; 0x8003a10
        0x080030dc:    6820         h      LDR      r0,[r4,#0]
        0x080030de:    4435        5D      ADD      r5,r5,r6
        0x080030e0:    42b5        .B      CMP      r5,r6
        0x080030e2:    6045        E`      STR      r5,[r0,#4]
        0x080030e4:    6821        !h      LDR      r1,[r4,#0]
        0x080030e6:    d205        ..      BCS      0x80030f4 ; prvAddCurrentTaskToDelayedList + 64
        0x080030e8:    68a0        .h      LDR      r0,[r4,#8]
        0x080030ea:    e8bd41f0    ...A    POP      {r4-r8,lr}
        0x080030ee:    1d09        ..      ADDS     r1,r1,#4
        0x080030f0:    f000bc76    ..v.    B.W      vListInsert ; 0x80039e0
        0x080030f4:    6860        `h      LDR      r0,[r4,#4]
        0x080030f6:    1d09        ..      ADDS     r1,r1,#4
        0x080030f8:    f000fc72    ..r.    BL       vListInsert ; 0x80039e0
        0x080030fc:    6b20         k      LDR      r0,[r4,#0x30]
        0x080030fe:    4285        .B      CMP      r5,r0
        0x08003100:    d200        ..      BCS      0x8003104 ; prvAddCurrentTaskToDelayedList + 80
        0x08003102:    6325        %c      STR      r5,[r4,#0x30]
        0x08003104:    e8bd81f0    ....    POP      {r4-r8,pc}
    $d
        0x08003108:    20000014    ...     DCD    536870932
        0x0800310c:    20000aec    ...     DCD    536873708
    $t
    i.prvAddNewTaskToReadyList
    prvAddNewTaskToReadyList
        0x08003110:    e92d41f0    -..A    PUSH     {r4-r8,lr}
        0x08003114:    4605        .F      MOV      r5,r0
        0x08003116:    f000fc87    ....    BL       vPortEnterCritical ; 0x8003a28
        0x0800311a:    4c2d        -L      LDR      r4,[pc,#180] ; [0x80031d0] = 0x20000014
        0x0800311c:    6920         i      LDR      r0,[r4,#0x10]
        0x0800311e:    1c40        @.      ADDS     r0,r0,#1
        0x08003120:    6120         a      STR      r0,[r4,#0x10]
        0x08003122:    6820         h      LDR      r0,[r4,#0]
        0x08003124:    4f2b        +O      LDR      r7,[pc,#172] ; [0x80031d4] = 0x2000063c
        0x08003126:    b110        ..      CBZ      r0,0x800312e ; prvAddNewTaskToReadyList + 30
        0x08003128:    69e0        .i      LDR      r0,[r4,#0x1c]
        0x0800312a:    b330        0.      CBZ      r0,0x800317a ; prvAddNewTaskToReadyList + 106
        0x0800312c:    e02b        +.      B        0x8003186 ; prvAddNewTaskToReadyList + 118
        0x0800312e:    6025        %`      STR      r5,[r4,#0]
        0x08003130:    6920         i      LDR      r0,[r4,#0x10]
        0x08003132:    2801        .(      CMP      r0,#1
        0x08003134:    d127        '.      BNE      0x8003186 ; prvAddNewTaskToReadyList + 118
        0x08003136:    2600        .&      MOVS     r6,#0
        0x08003138:    eb060086    ....    ADD      r0,r6,r6,LSL #2
        0x0800313c:    eb070080    ....    ADD      r0,r7,r0,LSL #2
        0x08003140:    f000fc40    ..@.    BL       vListInitialise ; 0x80039c4
        0x08003144:    1c76        v.      ADDS     r6,r6,#1
        0x08003146:    2e38        8.      CMP      r6,#0x38
        0x08003148:    d3f6        ..      BCC      0x8003138 ; prvAddNewTaskToReadyList + 40
        0x0800314a:    4823        #H      LDR      r0,[pc,#140] ; [0x80031d8] = 0x20000a9c
        0x0800314c:    f000fc3a    ..:.    BL       vListInitialise ; 0x80039c4
        0x08003150:    4821        !H      LDR      r0,[pc,#132] ; [0x80031d8] = 0x20000a9c
        0x08003152:    3014        .0      ADDS     r0,r0,#0x14
        0x08003154:    f000fc36    ..6.    BL       vListInitialise ; 0x80039c4
        0x08003158:    481f        .H      LDR      r0,[pc,#124] ; [0x80031d8] = 0x20000a9c
        0x0800315a:    3028        (0      ADDS     r0,r0,#0x28
        0x0800315c:    f000fc32    ..2.    BL       vListInitialise ; 0x80039c4
        0x08003160:    481d        .H      LDR      r0,[pc,#116] ; [0x80031d8] = 0x20000a9c
        0x08003162:    303c        <0      ADDS     r0,r0,#0x3c
        0x08003164:    f000fc2e    ....    BL       vListInitialise ; 0x80039c4
        0x08003168:    481b        .H      LDR      r0,[pc,#108] ; [0x80031d8] = 0x20000a9c
        0x0800316a:    3050        P0      ADDS     r0,r0,#0x50
        0x0800316c:    f000fc2a    ..*.    BL       vListInitialise ; 0x80039c4
        0x08003170:    4819        .H      LDR      r0,[pc,#100] ; [0x80031d8] = 0x20000a9c
        0x08003172:    6060        ``      STR      r0,[r4,#4]
        0x08003174:    3014        .0      ADDS     r0,r0,#0x14
        0x08003176:    60a0        .`      STR      r0,[r4,#8]
        0x08003178:    e005        ..      B        0x8003186 ; prvAddNewTaskToReadyList + 118
        0x0800317a:    6820         h      LDR      r0,[r4,#0]
        0x0800317c:    6ae9        .j      LDR      r1,[r5,#0x2c]
        0x0800317e:    6ac0        .j      LDR      r0,[r0,#0x2c]
        0x08003180:    4288        .B      CMP      r0,r1
        0x08003182:    d800        ..      BHI      0x8003186 ; prvAddNewTaskToReadyList + 118
        0x08003184:    6025        %`      STR      r5,[r4,#0]
        0x08003186:    6ae0        .j      LDR      r0,[r4,#0x2c]
        0x08003188:    1c40        @.      ADDS     r0,r0,#1
        0x0800318a:    62e0        .b      STR      r0,[r4,#0x2c]
        0x0800318c:    6468        hd      STR      r0,[r5,#0x44]
        0x0800318e:    6ae8        .j      LDR      r0,[r5,#0x2c]
        0x08003190:    69a1        .i      LDR      r1,[r4,#0x18]
        0x08003192:    4288        .B      CMP      r0,r1
        0x08003194:    d900        ..      BLS      0x8003198 ; prvAddNewTaskToReadyList + 136
        0x08003196:    61a0        .a      STR      r0,[r4,#0x18]
        0x08003198:    eb000080    ....    ADD      r0,r0,r0,LSL #2
        0x0800319c:    eb070080    ....    ADD      r0,r7,r0,LSL #2
        0x080031a0:    1d29        ).      ADDS     r1,r5,#4
        0x080031a2:    f000fc35    ..5.    BL       vListInsertEnd ; 0x8003a10
        0x080031a6:    f000fc5f    .._.    BL       vPortExitCritical ; 0x8003a68
        0x080031aa:    69e0        .i      LDR      r0,[r4,#0x1c]
        0x080031ac:    2800        .(      CMP      r0,#0
        0x080031ae:    d00c        ..      BEQ      0x80031ca ; prvAddNewTaskToReadyList + 186
        0x080031b0:    6820         h      LDR      r0,[r4,#0]
        0x080031b2:    6ae9        .j      LDR      r1,[r5,#0x2c]
        0x080031b4:    6ac0        .j      LDR      r0,[r0,#0x2c]
        0x080031b6:    4288        .B      CMP      r0,r1
        0x080031b8:    d207        ..      BCS      0x80031ca ; prvAddNewTaskToReadyList + 186
        0x080031ba:    4908        .I      LDR      r1,[pc,#32] ; [0x80031dc] = 0xe000ed04
        0x080031bc:    f04f5080    O..P    MOV      r0,#0x10000000
        0x080031c0:    6008        .`      STR      r0,[r1,#0]
        0x080031c2:    f3bf8f4f    ..O.    DSB      
        0x080031c6:    f3bf8f6f    ..o.    ISB      
        0x080031ca:    e8bd81f0    ....    POP      {r4-r8,pc}
    $d
        0x080031ce:    0000        ..      DCW    0
        0x080031d0:    20000014    ...     DCD    536870932
        0x080031d4:    2000063c    <..     DCD    536872508
        0x080031d8:    20000a9c    ...     DCD    536873628
        0x080031dc:    e000ed04    ....    DCD    3758157060
    $t
    i.prvCheckForValidListAndQueue
    prvCheckForValidListAndQueue
        0x080031e0:    b538        8.      PUSH     {r3-r5,lr}
        0x080031e2:    f000fc21    ..!.    BL       vPortEnterCritical ; 0x8003a28
        0x080031e6:    4c10        .L      LDR      r4,[pc,#64] ; [0x8003228] = 0x20000050
        0x080031e8:    68a0        .h      LDR      r0,[r4,#8]
        0x080031ea:    b9c8        ..      CBNZ     r0,0x8003220 ; prvCheckForValidListAndQueue + 64
        0x080031ec:    480f        .H      LDR      r0,[pc,#60] ; [0x800322c] = 0x20000b00
        0x080031ee:    f000fbe9    ....    BL       vListInitialise ; 0x80039c4
        0x080031f2:    480e        .H      LDR      r0,[pc,#56] ; [0x800322c] = 0x20000b00
        0x080031f4:    3014        .0      ADDS     r0,r0,#0x14
        0x080031f6:    f000fbe5    ....    BL       vListInitialise ; 0x80039c4
        0x080031fa:    480c        .H      LDR      r0,[pc,#48] ; [0x800322c] = 0x20000b00
        0x080031fc:    6020         `      STR      r0,[r4,#0]
        0x080031fe:    3014        .0      ADDS     r0,r0,#0x14
        0x08003200:    6060        ``      STR      r0,[r4,#4]
        0x08003202:    4b0a        .K      LDR      r3,[pc,#40] ; [0x800322c] = 0x20000b00
        0x08003204:    2000        .       MOVS     r0,#0
        0x08003206:    3328        (3      ADDS     r3,r3,#0x28
        0x08003208:    9000        ..      STR      r0,[sp,#0]
        0x0800320a:    f1030250    ..P.    ADD      r2,r3,#0x50
        0x0800320e:    2110        .!      MOVS     r1,#0x10
        0x08003210:    200a        .       MOVS     r0,#0xa
        0x08003212:    f000fdf1    ....    BL       xQueueGenericCreateStatic ; 0x8003df8
        0x08003216:    60a0        .`      STR      r0,[r4,#8]
        0x08003218:    b110        ..      CBZ      r0,0x8003220 ; prvCheckForValidListAndQueue + 64
        0x0800321a:    a105        ..      ADR      r1,{pc}+0x16 ; 0x8003230
        0x0800321c:    f000fca2    ....    BL       vQueueAddToRegistry ; 0x8003b64
        0x08003220:    e8bd4038    ..8@    POP      {r3-r5,lr}
        0x08003224:    f000bc20    .. .    B.W      vPortExitCritical ; 0x8003a68
    $d
        0x08003228:    20000050    P..     DCD    536870992
        0x0800322c:    20000b00    ...     DCD    536873728
        0x08003230:    51726d54    TmrQ    DCD    1366453588
        0x08003234:    00000000    ....    DCD    0
    $t
    i.prvCopyDataFromQueue
    prvCopyDataFromQueue
        0x08003238:    b430        0.      PUSH     {r4,r5}
        0x0800323a:    6c02        .l      LDR      r2,[r0,#0x40]
        0x0800323c:    460b        .F      MOV      r3,r1
        0x0800323e:    2a00        .*      CMP      r2,#0
        0x08003240:    d00b        ..      BEQ      0x800325a ; prvCopyDataFromQueue + 34
        0x08003242:    68c1        .h      LDR      r1,[r0,#0xc]
        0x08003244:    4411        .D      ADD      r1,r1,r2
        0x08003246:    60c1        .`      STR      r1,[r0,#0xc]
        0x08003248:    6844        Dh      LDR      r4,[r0,#4]
        0x0800324a:    42a1        .B      CMP      r1,r4
        0x0800324c:    d301        ..      BCC      0x8003252 ; prvCopyDataFromQueue + 26
        0x0800324e:    6801        .h      LDR      r1,[r0,#0]
        0x08003250:    60c1        .`      STR      r1,[r0,#0xc]
        0x08003252:    bc30        0.      POP      {r4,r5}
        0x08003254:    4618        .F      MOV      r0,r3
        0x08003256:    f7fcbff2    ....    B        __aeabi_memcpy ; 0x800023e
        0x0800325a:    bc30        0.      POP      {r4,r5}
        0x0800325c:    4770        pG      BX       lr
    i.prvCopyDataToQueue
    prvCopyDataToQueue
        0x0800325e:    e92d41f0    -..A    PUSH     {r4-r8,lr}
        0x08003262:    6b85        .k      LDR      r5,[r0,#0x38]
        0x08003264:    4617        .F      MOV      r7,r2
        0x08003266:    4604        .F      MOV      r4,r0
        0x08003268:    2600        .&      MOVS     r6,#0
        0x0800326a:    6c02        .l      LDR      r2,[r0,#0x40]
        0x0800326c:    b182        ..      CBZ      r2,0x8003290 ; prvCopyDataToQueue + 50
        0x0800326e:    b1c7        ..      CBZ      r7,0x80032a2 ; prvCopyDataToQueue + 68
        0x08003270:    68e0        .h      LDR      r0,[r4,#0xc]
        0x08003272:    f7fcffe4    ....    BL       __aeabi_memcpy ; 0x800023e
        0x08003276:    68e1        .h      LDR      r1,[r4,#0xc]
        0x08003278:    6c20         l      LDR      r0,[r4,#0x40]
        0x0800327a:    1a09        ..      SUBS     r1,r1,r0
        0x0800327c:    60e1        .`      STR      r1,[r4,#0xc]
        0x0800327e:    6822        "h      LDR      r2,[r4,#0]
        0x08003280:    4291        .B      CMP      r1,r2
        0x08003282:    d202        ..      BCS      0x800328a ; prvCopyDataToQueue + 44
        0x08003284:    6861        ah      LDR      r1,[r4,#4]
        0x08003286:    1a08        ..      SUBS     r0,r1,r0
        0x08003288:    60e0        .`      STR      r0,[r4,#0xc]
        0x0800328a:    2f02        ./      CMP      r7,#2
        0x0800328c:    d016        ..      BEQ      0x80032bc ; prvCopyDataToQueue + 94
        0x0800328e:    e017        ..      B        0x80032c0 ; prvCopyDataToQueue + 98
        0x08003290:    6820         h      LDR      r0,[r4,#0]
        0x08003292:    b9a8        ..      CBNZ     r0,0x80032c0 ; prvCopyDataToQueue + 98
        0x08003294:    6860        `h      LDR      r0,[r4,#4]
        0x08003296:    f001f8db    ....    BL       xTaskPriorityDisinherit ; 0x8004450
        0x0800329a:    4606        .F      MOV      r6,r0
        0x0800329c:    2000        .       MOVS     r0,#0
        0x0800329e:    6060        ``      STR      r0,[r4,#4]
        0x080032a0:    e00e        ..      B        0x80032c0 ; prvCopyDataToQueue + 98
        0x080032a2:    68a0        .h      LDR      r0,[r4,#8]
        0x080032a4:    f7fcffcb    ....    BL       __aeabi_memcpy ; 0x800023e
        0x080032a8:    6c21        !l      LDR      r1,[r4,#0x40]
        0x080032aa:    68a0        .h      LDR      r0,[r4,#8]
        0x080032ac:    4408        .D      ADD      r0,r0,r1
        0x080032ae:    60a0        .`      STR      r0,[r4,#8]
        0x080032b0:    6861        ah      LDR      r1,[r4,#4]
        0x080032b2:    4288        .B      CMP      r0,r1
        0x080032b4:    d304        ..      BCC      0x80032c0 ; prvCopyDataToQueue + 98
        0x080032b6:    6820         h      LDR      r0,[r4,#0]
        0x080032b8:    60a0        .`      STR      r0,[r4,#8]
        0x080032ba:    e001        ..      B        0x80032c0 ; prvCopyDataToQueue + 98
        0x080032bc:    b105        ..      CBZ      r5,0x80032c0 ; prvCopyDataToQueue + 98
        0x080032be:    1e6d        m.      SUBS     r5,r5,#1
        0x080032c0:    1c6d        m.      ADDS     r5,r5,#1
        0x080032c2:    63a5        .c      STR      r5,[r4,#0x38]
        0x080032c4:    4630        0F      MOV      r0,r6
        0x080032c6:    e8bd81f0    ....    POP      {r4-r8,pc}
    i.prvDeleteTCB
    prvDeleteTCB
        0x080032ca:    b510        ..      PUSH     {r4,lr}
        0x080032cc:    4604        .F      MOV      r4,r0
        0x080032ce:    f8900059    ..Y.    LDRB     r0,[r0,#0x59]
        0x080032d2:    b158        X.      CBZ      r0,0x80032ec ; prvDeleteTCB + 34
        0x080032d4:    2801        .(      CMP      r0,#1
        0x080032d6:    d00c        ..      BEQ      0x80032f2 ; prvDeleteTCB + 40
        0x080032d8:    2802        .(      CMP      r0,#2
        0x080032da:    d00f        ..      BEQ      0x80032fc ; prvDeleteTCB + 50
        0x080032dc:    2050        P       MOVS     r0,#0x50
        0x080032de:    f3808811    ....    MSR      BASEPRI,r0
        0x080032e2:    f3bf8f4f    ..O.    DSB      
        0x080032e6:    f3bf8f6f    ..o.    ISB      
        0x080032ea:    e7fe        ..      B        0x80032ea ; prvDeleteTCB + 32
        0x080032ec:    6b20         k      LDR      r0,[r4,#0x30]
        0x080032ee:    f000fbcf    ....    BL       vPortFree ; 0x8003a90
        0x080032f2:    4620         F      MOV      r0,r4
        0x080032f4:    e8bd4010    ...@    POP      {r4,lr}
        0x080032f8:    f000bbca    ....    B.W      vPortFree ; 0x8003a90
        0x080032fc:    bd10        ..      POP      {r4,pc}
        0x080032fe:    0000        ..      MOVS     r0,r0
    i.prvHeapInit
    prvHeapInit
        0x08003300:    4810        .H      LDR      r0,[pc,#64] ; [0x8003344] = 0x200012d0
        0x08003302:    f44f6140    O.@a    MOV      r1,#0xc00
        0x08003306:    0742        B.      LSLS     r2,r0,#29
        0x08003308:    d006        ..      BEQ      0x8003318 ; prvHeapInit + 24
        0x0800330a:    1dc0        ..      ADDS     r0,r0,#7
        0x0800330c:    490d        .I      LDR      r1,[pc,#52] ; [0x8003344] = 0x200012d0
        0x0800330e:    f0200007     ...    BIC      r0,r0,#7
        0x08003312:    1a41        A.      SUBS     r1,r0,r1
        0x08003314:    f5c16140    ..@a    RSB      r1,r1,#0xc00
        0x08003318:    4a0b        .J      LDR      r2,[pc,#44] ; [0x8003348] = 0x20000078
        0x0800331a:    2300        .#      MOVS     r3,#0
        0x0800331c:    4401        .D      ADD      r1,r1,r0
        0x0800331e:    e9c20300    ....    STRD     r0,r3,[r2,#0]
        0x08003322:    3908        .9      SUBS     r1,r1,#8
        0x08003324:    3a10        .:      SUBS     r2,r2,#0x10
        0x08003326:    f0210107    !...    BIC      r1,r1,#7
        0x0800332a:    6011        .`      STR      r1,[r2,#0]
        0x0800332c:    604b        K`      STR      r3,[r1,#4]
        0x0800332e:    600b        .`      STR      r3,[r1,#0]
        0x08003330:    1a0b        ..      SUBS     r3,r1,r0
        0x08003332:    e9c01300    ....    STRD     r1,r3,[r0,#0]
        0x08003336:    6093        .`      STR      r3,[r2,#8]
        0x08003338:    f04f4000    O..@    MOV      r0,#0x80000000
        0x0800333c:    6053        S`      STR      r3,[r2,#4]
        0x0800333e:    60d0        .`      STR      r0,[r2,#0xc]
        0x08003340:    4770        pG      BX       lr
    $d
        0x08003342:    0000        ..      DCW    0
        0x08003344:    200012d0    ...     DCD    536875728
        0x08003348:    20000078    x..     DCD    536871032
    $t
    i.prvIdleTask
    prvIdleTask
        0x0800334c:    4e14        .N      LDR      r6,[pc,#80] ; [0x80033a0] = 0x20000ad8
        0x0800334e:    4c15        .L      LDR      r4,[pc,#84] ; [0x80033a4] = 0x20000014
        0x08003350:    f2a6479c    ...G    SUB      r7,r6,#0x49c
        0x08003354:    f04f5880    O..X    MOV      r8,#0x10000000
        0x08003358:    f8df904c    ..L.    LDR      r9,[pc,#76] ; [0x80033a8] = 0xe000ed04
        0x0800335c:    e012        ..      B        0x8003384 ; prvIdleTask + 56
        0x0800335e:    bf00        ..      NOP      
        0x08003360:    f000fb62    ..b.    BL       vPortEnterCritical ; 0x8003a28
        0x08003364:    68f0        .h      LDR      r0,[r6,#0xc]
        0x08003366:    68c5        .h      LDR      r5,[r0,#0xc]
        0x08003368:    1d28        (.      ADDS     r0,r5,#4
        0x0800336a:    f000fb01    ....    BL       uxListRemove ; 0x8003970
        0x0800336e:    6920         i      LDR      r0,[r4,#0x10]
        0x08003370:    1e40        @.      SUBS     r0,r0,#1
        0x08003372:    6120         a      STR      r0,[r4,#0x10]
        0x08003374:    68e0        .h      LDR      r0,[r4,#0xc]
        0x08003376:    1e40        @.      SUBS     r0,r0,#1
        0x08003378:    60e0        .`      STR      r0,[r4,#0xc]
        0x0800337a:    f000fb75    ..u.    BL       vPortExitCritical ; 0x8003a68
        0x0800337e:    4628        (F      MOV      r0,r5
        0x08003380:    f7ffffa3    ....    BL       prvDeleteTCB ; 0x80032ca
        0x08003384:    68e0        .h      LDR      r0,[r4,#0xc]
        0x08003386:    2800        .(      CMP      r0,#0
        0x08003388:    d1ea        ..      BNE      0x8003360 ; prvIdleTask + 20
        0x0800338a:    6838        8h      LDR      r0,[r7,#0]
        0x0800338c:    2801        .(      CMP      r0,#1
        0x0800338e:    d9f9        ..      BLS      0x8003384 ; prvIdleTask + 56
        0x08003390:    f8c98000    ....    STR      r8,[r9,#0]
        0x08003394:    f3bf8f4f    ..O.    DSB      
        0x08003398:    f3bf8f6f    ..o.    ISB      
        0x0800339c:    e7f2        ..      B        0x8003384 ; prvIdleTask + 56
    $d
        0x0800339e:    0000        ..      DCW    0
        0x080033a0:    20000ad8    ...     DCD    536873688
        0x080033a4:    20000014    ...     DCD    536870932
        0x080033a8:    e000ed04    ....    DCD    3758157060
    $t
    i.prvInitialiseNewQueue
    prvInitialiseNewQueue
        0x080033ac:    b570        p.      PUSH     {r4-r6,lr}
        0x080033ae:    461d        .F      MOV      r5,r3
        0x080033b0:    9c04        ..      LDR      r4,[sp,#0x10]
        0x080033b2:    b151        Q.      CBZ      r1,0x80033ca ; prvInitialiseNewQueue + 30
        0x080033b4:    f8c42000    ...     STR.W    r2,[r4,#0]
        0x080033b8:    e9c4010f    ....    STRD     r0,r1,[r4,#0x3c]
        0x080033bc:    2101        .!      MOVS     r1,#1
        0x080033be:    4620         F      MOV      r0,r4
        0x080033c0:    f000fd4e    ..N.    BL       xQueueGenericReset ; 0x8003e60
        0x080033c4:    f884504c    ..LP    STRB     r5,[r4,#0x4c]
        0x080033c8:    bd70        p.      POP      {r4-r6,pc}
        0x080033ca:    6024        $`      STR      r4,[r4,#0]
        0x080033cc:    e7f4        ..      B        0x80033b8 ; prvInitialiseNewQueue + 12
    i.prvInitialiseNewTask
    prvInitialiseNewTask
        0x080033ce:    e92d47f0    -..G    PUSH     {r4-r10,lr}
        0x080033d2:    460e        .F      MOV      r6,r1
        0x080033d4:    e9dd8409    ....    LDRD     r8,r4,[sp,#0x24]
        0x080033d8:    4617        .F      MOV      r7,r2
        0x080033da:    4682        .F      MOV      r10,r0
        0x080033dc:    0091        ..      LSLS     r1,r2,#2
        0x080033de:    4699        .F      MOV      r9,r3
        0x080033e0:    9d08        ..      LDR      r5,[sp,#0x20]
        0x080033e2:    22a5        ."      MOVS     r2,#0xa5
        0x080033e4:    6b20         k      LDR      r0,[r4,#0x30]
        0x080033e6:    f7fcff3c    ..<.    BL       __aeabi_memset ; 0x8000262
        0x080033ea:    f06f0103    o...    MVN      r1,#3
        0x080033ee:    6b20         k      LDR      r0,[r4,#0x30]
        0x080033f0:    eb010187    ....    ADD      r1,r1,r7,LSL #2
        0x080033f4:    4408        .D      ADD      r0,r0,r1
        0x080033f6:    f0200707     ...    BIC      r7,r0,#7
        0x080033fa:    0778        x.      LSLS     r0,r7,#29
        0x080033fc:    d007        ..      BEQ      0x800340e ; prvInitialiseNewTask + 64
        0x080033fe:    2050        P       MOVS     r0,#0x50
        0x08003400:    f3808811    ....    MSR      BASEPRI,r0
        0x08003404:    f3bf8f4f    ..O.    DSB      
        0x08003408:    f3bf8f6f    ..o.    ISB      
        0x0800340c:    e7fe        ..      B        0x800340c ; prvInitialiseNewTask + 62
        0x0800340e:    1822        ".      ADDS     r2,r4,r0
        0x08003410:    5c31        1\      LDRB     r1,[r6,r0]
        0x08003412:    f8821034    ..4.    STRB     r1,[r2,#0x34]
        0x08003416:    5c31        1\      LDRB     r1,[r6,r0]
        0x08003418:    b111        ..      CBZ      r1,0x8003420 ; prvInitialiseNewTask + 82
        0x0800341a:    1c40        @.      ADDS     r0,r0,#1
        0x0800341c:    2810        .(      CMP      r0,#0x10
        0x0800341e:    d3f6        ..      BCC      0x800340e ; prvInitialiseNewTask + 64
        0x08003420:    2600        .&      MOVS     r6,#0
        0x08003422:    f8846043    ..C`    STRB     r6,[r4,#0x43]
        0x08003426:    2d38        8-      CMP      r5,#0x38
        0x08003428:    d300        ..      BCC      0x800342c ; prvInitialiseNewTask + 94
        0x0800342a:    2537        7%      MOVS     r5,#0x37
        0x0800342c:    62e5        .b      STR      r5,[r4,#0x2c]
        0x0800342e:    e9c45613    ...V    STRD     r5,r6,[r4,#0x4c]
        0x08003432:    1d20         .      ADDS     r0,r4,#4
        0x08003434:    f000fad1    ....    BL       vListInitialiseItem ; 0x80039da
        0x08003438:    f1040018    ....    ADD      r0,r4,#0x18
        0x0800343c:    f000facd    ....    BL       vListInitialiseItem ; 0x80039da
        0x08003440:    6124        $a      STR      r4,[r4,#0x10]
        0x08003442:    f1c50038    ..8.    RSB      r0,r5,#0x38
        0x08003446:    6264        db      STR      r4,[r4,#0x24]
        0x08003448:    61a0        .a      STR      r0,[r4,#0x18]
        0x0800344a:    6566        fe      STR      r6,[r4,#0x54]
        0x0800344c:    f8846058    ..X`    STRB     r6,[r4,#0x58]
        0x08003450:    464a        JF      MOV      r2,r9
        0x08003452:    4651        QF      MOV      r1,r10
        0x08003454:    4638        8F      MOV      r0,r7
        0x08003456:    f000fa3b    ..;.    BL       pxPortInitialiseStack ; 0x80038d0
        0x0800345a:    6020         `      STR      r0,[r4,#0]
        0x0800345c:    f1b80f00    ....    CMP      r8,#0
        0x08003460:    d001        ..      BEQ      0x8003466 ; prvInitialiseNewTask + 152
        0x08003462:    f8c84000    ...@    STR      r4,[r8,#0]
        0x08003466:    e8bd87f0    ....    POP      {r4-r10,pc}
        0x0800346a:    0000        ..      MOVS     r0,r0
    i.prvInsertBlockIntoFreeList
    prvInsertBlockIntoFreeList
        0x0800346c:    b530        0.      PUSH     {r4,r5,lr}
        0x0800346e:    4911        .I      LDR      r1,[pc,#68] ; [0x80034b4] = 0x20000078
        0x08003470:    e000        ..      B        0x8003474 ; prvInsertBlockIntoFreeList + 8
        0x08003472:    4611        .F      MOV      r1,r2
        0x08003474:    680a        .h      LDR      r2,[r1,#0]
        0x08003476:    4282        .B      CMP      r2,r0
        0x08003478:    d3fb        ..      BCC      0x8003472 ; prvInsertBlockIntoFreeList + 6
        0x0800347a:    684b        Kh      LDR      r3,[r1,#4]
        0x0800347c:    185c        \.      ADDS     r4,r3,r1
        0x0800347e:    4284        .B      CMP      r4,r0
        0x08003480:    d103        ..      BNE      0x800348a ; prvInsertBlockIntoFreeList + 30
        0x08003482:    6840        @h      LDR      r0,[r0,#4]
        0x08003484:    4418        .D      ADD      r0,r0,r3
        0x08003486:    6048        H`      STR      r0,[r1,#4]
        0x08003488:    4608        .F      MOV      r0,r1
        0x0800348a:    6843        Ch      LDR      r3,[r0,#4]
        0x0800348c:    181c        ..      ADDS     r4,r3,r0
        0x0800348e:    4294        .B      CMP      r4,r2
        0x08003490:    d109        ..      BNE      0x80034a6 ; prvInsertBlockIntoFreeList + 58
        0x08003492:    4c08        .L      LDR      r4,[pc,#32] ; [0x80034b4] = 0x20000078
        0x08003494:    3c10        .<      SUBS     r4,r4,#0x10
        0x08003496:    6824        $h      LDR      r4,[r4,#0]
        0x08003498:    42a2        .B      CMP      r2,r4
        0x0800349a:    d009        ..      BEQ      0x80034b0 ; prvInsertBlockIntoFreeList + 68
        0x0800349c:    6852        Rh      LDR      r2,[r2,#4]
        0x0800349e:    441a        .D      ADD      r2,r2,r3
        0x080034a0:    6042        B`      STR      r2,[r0,#4]
        0x080034a2:    680a        .h      LDR      r2,[r1,#0]
        0x080034a4:    6812        .h      LDR      r2,[r2,#0]
        0x080034a6:    6002        .`      STR      r2,[r0,#0]
        0x080034a8:    4281        .B      CMP      r1,r0
        0x080034aa:    d000        ..      BEQ      0x80034ae ; prvInsertBlockIntoFreeList + 66
        0x080034ac:    6008        .`      STR      r0,[r1,#0]
        0x080034ae:    bd30        0.      POP      {r4,r5,pc}
        0x080034b0:    6004        .`      STR      r4,[r0,#0]
        0x080034b2:    e7f9        ..      B        0x80034a8 ; prvInsertBlockIntoFreeList + 60
    $d
        0x080034b4:    20000078    x..     DCD    536871032
    $t
    i.prvInsertTimerInActiveList
    prvInsertTimerInActiveList
        0x080034b8:    b570        p.      PUSH     {r4-r6,lr}
        0x080034ba:    2400        .$      MOVS     r4,#0
        0x080034bc:    6041        A`      STR      r1,[r0,#4]
        0x080034be:    4d0b        .M      LDR      r5,[pc,#44] ; [0x80034ec] = 0x20000050
        0x080034c0:    6100        .a      STR      r0,[r0,#0x10]
        0x080034c2:    4291        .B      CMP      r1,r2
        0x080034c4:    d806        ..      BHI      0x80034d4 ; prvInsertTimerInActiveList + 28
        0x080034c6:    1ad1        ..      SUBS     r1,r2,r3
        0x080034c8:    6982        .i      LDR      r2,[r0,#0x18]
        0x080034ca:    4291        .B      CMP      r1,r2
        0x080034cc:    d206        ..      BCS      0x80034dc ; prvInsertTimerInActiveList + 36
        0x080034ce:    1d01        ..      ADDS     r1,r0,#4
        0x080034d0:    6868        hh      LDR      r0,[r5,#4]
        0x080034d2:    e007        ..      B        0x80034e4 ; prvInsertTimerInActiveList + 44
        0x080034d4:    429a        .B      CMP      r2,r3
        0x080034d6:    d203        ..      BCS      0x80034e0 ; prvInsertTimerInActiveList + 40
        0x080034d8:    4299        .B      CMP      r1,r3
        0x080034da:    d301        ..      BCC      0x80034e0 ; prvInsertTimerInActiveList + 40
        0x080034dc:    2401        .$      MOVS     r4,#1
        0x080034de:    e003        ..      B        0x80034e8 ; prvInsertTimerInActiveList + 48
        0x080034e0:    1d01        ..      ADDS     r1,r0,#4
        0x080034e2:    6828        (h      LDR      r0,[r5,#0]
        0x080034e4:    f000fa7c    ..|.    BL       vListInsert ; 0x80039e0
        0x080034e8:    4620         F      MOV      r0,r4
        0x080034ea:    bd70        p.      POP      {r4-r6,pc}
    $d
        0x080034ec:    20000050    P..     DCD    536870992
    $t
    i.prvIsQueueEmpty
    prvIsQueueEmpty
        0x080034f0:    b510        ..      PUSH     {r4,lr}
        0x080034f2:    4604        .F      MOV      r4,r0
        0x080034f4:    f000fa98    ....    BL       vPortEnterCritical ; 0x8003a28
        0x080034f8:    6ba0        .k      LDR      r0,[r4,#0x38]
        0x080034fa:    b128        (.      CBZ      r0,0x8003508 ; prvIsQueueEmpty + 24
        0x080034fc:    f05f0400    _...    MOVS.W   r4,#0
        0x08003500:    f000fab2    ....    BL       vPortExitCritical ; 0x8003a68
        0x08003504:    4620         F      MOV      r0,r4
        0x08003506:    bd10        ..      POP      {r4,pc}
        0x08003508:    2401        .$      MOVS     r4,#1
        0x0800350a:    e7f9        ..      B        0x8003500 ; prvIsQueueEmpty + 16
    i.prvProcessReceivedCommands
    prvProcessReceivedCommands
        0x0800350c:    b530        0.      PUSH     {r4,r5,lr}
        0x0800350e:    b089        ..      SUB      sp,sp,#0x24
        0x08003510:    4d30        0M      LDR      r5,[pc,#192] ; [0x80035d4] = 0x20000050
        0x08003512:    e055        U.      B        0x80035c0 ; prvProcessReceivedCommands + 180
        0x08003514:    9804        ..      LDR      r0,[sp,#0x10]
        0x08003516:    2800        .(      CMP      r0,#0
        0x08003518:    da06        ..      BGE      0x8003528 ; prvProcessReceivedCommands + 28
        0x0800351a:    e9dd0106    ....    LDRD     r0,r1,[sp,#0x18]
        0x0800351e:    9a05        ..      LDR      r2,[sp,#0x14]
        0x08003520:    4790        .G      BLX      r2
        0x08003522:    9804        ..      LDR      r0,[sp,#0x10]
        0x08003524:    2800        .(      CMP      r0,#0
        0x08003526:    db4b        K.      BLT      0x80035c0 ; prvProcessReceivedCommands + 180
        0x08003528:    9c06        ..      LDR      r4,[sp,#0x18]
        0x0800352a:    6960        `i      LDR      r0,[r4,#0x14]
        0x0800352c:    b110        ..      CBZ      r0,0x8003534 ; prvProcessReceivedCommands + 40
        0x0800352e:    1d20         .      ADDS     r0,r4,#4
        0x08003530:    f000fa1e    ....    BL       uxListRemove ; 0x8003970
        0x08003534:    a802        ..      ADD      r0,sp,#8
        0x08003536:    f000f8b9    ....    BL       prvSampleTimeNow ; 0x80036ac
        0x0800353a:    4602        .F      MOV      r2,r0
        0x0800353c:    9804        ..      LDR      r0,[sp,#0x10]
        0x0800353e:    280a        .(      CMP      r0,#0xa
        0x08003540:    d23e        >.      BCS      0x80035c0 ; prvProcessReceivedCommands + 180
        0x08003542:    e8dff000    ....    TBB      [pc,r0]
    $d
        0x08003546:    0505        ..      DCW    1285
        0x08003548:    37263d05    .=&7    DCD    925252869
        0x0800354c:    263d0505    ..=&    DCD    641533189
    $t
        0x08003550:    9805        ..      LDR      r0,[sp,#0x14]
        0x08003552:    69a1        .i      LDR      r1,[r4,#0x18]
        0x08003554:    4603        .F      MOV      r3,r0
        0x08003556:    4401        .D      ADD      r1,r1,r0
        0x08003558:    4620         F      MOV      r0,r4
        0x0800355a:    f7ffffad    ....    BL       prvInsertTimerInActiveList ; 0x80034b8
        0x0800355e:    b300        ..      CBZ      r0,0x80035a2 ; prvProcessReceivedCommands + 150
        0x08003560:    6a61        aj      LDR      r1,[r4,#0x24]
        0x08003562:    4620         F      MOV      r0,r4
        0x08003564:    4788        .G      BLX      r1
        0x08003566:    69e0        .i      LDR      r0,[r4,#0x1c]
        0x08003568:    2801        .(      CMP      r0,#1
        0x0800356a:    d129        ).      BNE      0x80035c0 ; prvProcessReceivedCommands + 180
        0x0800356c:    2000        .       MOVS     r0,#0
        0x0800356e:    9000        ..      STR      r0,[sp,#0]
        0x08003570:    9805        ..      LDR      r0,[sp,#0x14]
        0x08003572:    69a1        .i      LDR      r1,[r4,#0x18]
        0x08003574:    2300        .#      MOVS     r3,#0
        0x08003576:    1842        B.      ADDS     r2,r0,r1
        0x08003578:    4619        .F      MOV      r1,r3
        0x0800357a:    4620         F      MOV      r0,r4
        0x0800357c:    f001f872    ..r.    BL       xTimerGenericCommand ; 0x8004664
        0x08003580:    b978        x.      CBNZ     r0,0x80035a2 ; prvProcessReceivedCommands + 150
        0x08003582:    2050        P       MOVS     r0,#0x50
        0x08003584:    f3808811    ....    MSR      BASEPRI,r0
        0x08003588:    f3bf8f4f    ..O.    DSB      
        0x0800358c:    f3bf8f6f    ..o.    ISB      
        0x08003590:    e7fe        ..      B        0x8003590 ; prvProcessReceivedCommands + 132
        0x08003592:    9805        ..      LDR      r0,[sp,#0x14]
        0x08003594:    61a0        .a      STR      r0,[r4,#0x18]
        0x08003596:    b128        (.      CBZ      r0,0x80035a4 ; prvProcessReceivedCommands + 152
        0x08003598:    1881        ..      ADDS     r1,r0,r2
        0x0800359a:    4613        .F      MOV      r3,r2
        0x0800359c:    4620         F      MOV      r0,r4
        0x0800359e:    f7ffff8b    ....    BL       prvInsertTimerInActiveList ; 0x80034b8
        0x080035a2:    e00d        ..      B        0x80035c0 ; prvProcessReceivedCommands + 180
        0x080035a4:    2050        P       MOVS     r0,#0x50
        0x080035a6:    f3808811    ....    MSR      BASEPRI,r0
        0x080035aa:    f3bf8f4f    ..O.    DSB      
        0x080035ae:    f3bf8f6f    ..o.    ISB      
        0x080035b2:    e7fe        ..      B        0x80035b2 ; prvProcessReceivedCommands + 166
        0x080035b4:    f894002c    ..,.    LDRB     r0,[r4,#0x2c]
        0x080035b8:    b910        ..      CBNZ     r0,0x80035c0 ; prvProcessReceivedCommands + 180
        0x080035ba:    4620         F      MOV      r0,r4
        0x080035bc:    f000fa68    ..h.    BL       vPortFree ; 0x8003a90
        0x080035c0:    2200        ."      MOVS     r2,#0
        0x080035c2:    a904        ..      ADD      r1,sp,#0x10
        0x080035c4:    68a8        .h      LDR      r0,[r5,#8]
        0x080035c6:    f000fd9d    ....    BL       xQueueReceive ; 0x8004104
        0x080035ca:    2800        .(      CMP      r0,#0
        0x080035cc:    d1a2        ..      BNE      0x8003514 ; prvProcessReceivedCommands + 8
        0x080035ce:    b009        ..      ADD      sp,sp,#0x24
        0x080035d0:    bd30        0.      POP      {r4,r5,pc}
    $d
        0x080035d2:    0000        ..      DCW    0
        0x080035d4:    20000050    P..     DCD    536870992
    $t
    i.prvProcessTimerOrBlockTask
    prvProcessTimerOrBlockTask
        0x080035d8:    e92d41fc    -..A    PUSH     {r2-r8,lr}
        0x080035dc:    460f        .F      MOV      r7,r1
        0x080035de:    4605        .F      MOV      r5,r0
        0x080035e0:    f000fb7c    ..|.    BL       vTaskSuspendAll ; 0x8003cdc
        0x080035e4:    a801        ..      ADD      r0,sp,#4
        0x080035e6:    f000f861    ..a.    BL       prvSampleTimeNow ; 0x80036ac
        0x080035ea:    4604        .F      MOV      r4,r0
        0x080035ec:    9801        ..      LDR      r0,[sp,#4]
        0x080035ee:    b118        ..      CBZ      r0,0x80035f8 ; prvProcessTimerOrBlockTask + 32
        0x080035f0:    f000ffa6    ....    BL       xTaskResumeAll ; 0x8004540
        0x080035f4:    e8bd81fc    ....    POP      {r2-r8,pc}
        0x080035f8:    4e22        "N      LDR      r6,[pc,#136] ; [0x8003684] = 0x20000050
        0x080035fa:    b1af        ..      CBZ      r7,0x8003628 ; prvProcessTimerOrBlockTask + 80
        0x080035fc:    6870        ph      LDR      r0,[r6,#4]
        0x080035fe:    6800        .h      LDR      r0,[r0,#0]
        0x08003600:    b3a8        ..      CBZ      r0,0x800366e ; prvProcessTimerOrBlockTask + 150
        0x08003602:    2700        .'      MOVS     r7,#0
        0x08003604:    1b29        ).      SUBS     r1,r5,r4
        0x08003606:    463a        :F      MOV      r2,r7
        0x08003608:    68b0        .h      LDR      r0,[r6,#8]
        0x0800360a:    f000fabf    ....    BL       vQueueWaitForMessageRestricted ; 0x8003b8c
        0x0800360e:    f000ff97    ....    BL       xTaskResumeAll ; 0x8004540
        0x08003612:    2800        .(      CMP      r0,#0
        0x08003614:    d1ee        ..      BNE      0x80035f4 ; prvProcessTimerOrBlockTask + 28
        0x08003616:    491c        .I      LDR      r1,[pc,#112] ; [0x8003688] = 0xe000ed04
        0x08003618:    f04f5080    O..P    MOV      r0,#0x10000000
        0x0800361c:    6008        .`      STR      r0,[r1,#0]
        0x0800361e:    f3bf8f4f    ..O.    DSB      
        0x08003622:    f3bf8f6f    ..o.    ISB      
        0x08003626:    e7e5        ..      B        0x80035f4 ; prvProcessTimerOrBlockTask + 28
        0x08003628:    42a5        .B      CMP      r5,r4
        0x0800362a:    d8eb        ..      BHI      0x8003604 ; prvProcessTimerOrBlockTask + 44
        0x0800362c:    f000ff88    ....    BL       xTaskResumeAll ; 0x8004540
        0x08003630:    6830        0h      LDR      r0,[r6,#0]
        0x08003632:    4627        'F      MOV      r7,r4
        0x08003634:    68c0        .h      LDR      r0,[r0,#0xc]
        0x08003636:    68c4        .h      LDR      r4,[r0,#0xc]
        0x08003638:    1d20         .      ADDS     r0,r4,#4
        0x0800363a:    f000f999    ....    BL       uxListRemove ; 0x8003970
        0x0800363e:    69e0        .i      LDR      r0,[r4,#0x1c]
        0x08003640:    2801        .(      CMP      r0,#1
        0x08003642:    d110        ..      BNE      0x8003666 ; prvProcessTimerOrBlockTask + 142
        0x08003644:    69a0        .i      LDR      r0,[r4,#0x18]
        0x08003646:    462b        +F      MOV      r3,r5
        0x08003648:    1941        A.      ADDS     r1,r0,r5
        0x0800364a:    463a        :F      MOV      r2,r7
        0x0800364c:    4620         F      MOV      r0,r4
        0x0800364e:    f7ffff33    ..3.    BL       prvInsertTimerInActiveList ; 0x80034b8
        0x08003652:    b140        @.      CBZ      r0,0x8003666 ; prvProcessTimerOrBlockTask + 142
        0x08003654:    2000        .       MOVS     r0,#0
        0x08003656:    4603        .F      MOV      r3,r0
        0x08003658:    4601        .F      MOV      r1,r0
        0x0800365a:    9000        ..      STR      r0,[sp,#0]
        0x0800365c:    462a        *F      MOV      r2,r5
        0x0800365e:    4620         F      MOV      r0,r4
        0x08003660:    f001f800    ....    BL       xTimerGenericCommand ; 0x8004664
        0x08003664:    b120         .      CBZ      r0,0x8003670 ; prvProcessTimerOrBlockTask + 152
        0x08003666:    6a61        aj      LDR      r1,[r4,#0x24]
        0x08003668:    4620         F      MOV      r0,r4
        0x0800366a:    4788        .G      BLX      r1
        0x0800366c:    e7c2        ..      B        0x80035f4 ; prvProcessTimerOrBlockTask + 28
        0x0800366e:    e007        ..      B        0x8003680 ; prvProcessTimerOrBlockTask + 168
        0x08003670:    2050        P       MOVS     r0,#0x50
        0x08003672:    f3808811    ....    MSR      BASEPRI,r0
        0x08003676:    f3bf8f4f    ..O.    DSB      
        0x0800367a:    f3bf8f6f    ..o.    ISB      
        0x0800367e:    e7fe        ..      B        0x800367e ; prvProcessTimerOrBlockTask + 166
        0x08003680:    2701        .'      MOVS     r7,#1
        0x08003682:    e7bf        ..      B        0x8003604 ; prvProcessTimerOrBlockTask + 44
    $d
        0x08003684:    20000050    P..     DCD    536870992
        0x08003688:    e000ed04    ....    DCD    3758157060
    $t
    i.prvResetNextTaskUnblockTime
    prvResetNextTaskUnblockTime
        0x0800368c:    4806        .H      LDR      r0,[pc,#24] ; [0x80036a8] = 0x20000014
        0x0800368e:    6841        Ah      LDR      r1,[r0,#4]
        0x08003690:    6809        .h      LDR      r1,[r1,#0]
        0x08003692:    b129        ).      CBZ      r1,0x80036a0 ; prvResetNextTaskUnblockTime + 20
        0x08003694:    6841        Ah      LDR      r1,[r0,#4]
        0x08003696:    68c9        .h      LDR      r1,[r1,#0xc]
        0x08003698:    68c9        .h      LDR      r1,[r1,#0xc]
        0x0800369a:    6849        Ih      LDR      r1,[r1,#4]
        0x0800369c:    6301        .c      STR      r1,[r0,#0x30]
        0x0800369e:    4770        pG      BX       lr
        0x080036a0:    f04f31ff    O..1    MOV      r1,#0xffffffff
        0x080036a4:    e7fa        ..      B        0x800369c ; prvResetNextTaskUnblockTime + 16
    $d
        0x080036a6:    0000        ..      DCW    0
        0x080036a8:    20000014    ...     DCD    536870932
    $t
    i.prvSampleTimeNow
    prvSampleTimeNow
        0x080036ac:    b570        p.      PUSH     {r4-r6,lr}
        0x080036ae:    4605        .F      MOV      r5,r0
        0x080036b0:    f000fe64    ..d.    BL       xTaskGetTickCount ; 0x800437c
        0x080036b4:    4e06        .N      LDR      r6,[pc,#24] ; [0x80036d0] = 0x20000050
        0x080036b6:    4604        .F      MOV      r4,r0
        0x080036b8:    6930        0i      LDR      r0,[r6,#0x10]
        0x080036ba:    4284        .B      CMP      r4,r0
        0x080036bc:    d203        ..      BCS      0x80036c6 ; prvSampleTimeNow + 26
        0x080036be:    f000f809    ....    BL       prvSwitchTimerLists ; 0x80036d4
        0x080036c2:    2001        .       MOVS     r0,#1
        0x080036c4:    e000        ..      B        0x80036c8 ; prvSampleTimeNow + 28
        0x080036c6:    2000        .       MOVS     r0,#0
        0x080036c8:    6028        (`      STR      r0,[r5,#0]
        0x080036ca:    4620         F      MOV      r0,r4
        0x080036cc:    6134        4a      STR      r4,[r6,#0x10]
        0x080036ce:    bd70        p.      POP      {r4-r6,pc}
    $d
        0x080036d0:    20000050    P..     DCD    536870992
    $t
    i.prvSwitchTimerLists
    prvSwitchTimerLists
        0x080036d4:    b5f8        ..      PUSH     {r3-r7,lr}
        0x080036d6:    4d19        .M      LDR      r5,[pc,#100] ; [0x800373c] = 0x20000050
        0x080036d8:    e01f        ..      B        0x800371a ; prvSwitchTimerLists + 70
        0x080036da:    68c0        .h      LDR      r0,[r0,#0xc]
        0x080036dc:    68c4        .h      LDR      r4,[r0,#0xc]
        0x080036de:    6806        .h      LDR      r6,[r0,#0]
        0x080036e0:    1d20         .      ADDS     r0,r4,#4
        0x080036e2:    f000f945    ..E.    BL       uxListRemove ; 0x8003970
        0x080036e6:    6a61        aj      LDR      r1,[r4,#0x24]
        0x080036e8:    4620         F      MOV      r0,r4
        0x080036ea:    4788        .G      BLX      r1
        0x080036ec:    69e0        .i      LDR      r0,[r4,#0x1c]
        0x080036ee:    2801        .(      CMP      r0,#1
        0x080036f0:    d113        ..      BNE      0x800371a ; prvSwitchTimerLists + 70
        0x080036f2:    69a0        .i      LDR      r0,[r4,#0x18]
        0x080036f4:    4430        0D      ADD      r0,r0,r6
        0x080036f6:    42b0        .B      CMP      r0,r6
        0x080036f8:    d906        ..      BLS      0x8003708 ; prvSwitchTimerLists + 52
        0x080036fa:    6124        $a      STR      r4,[r4,#0x10]
        0x080036fc:    6060        ``      STR      r0,[r4,#4]
        0x080036fe:    1d21        !.      ADDS     r1,r4,#4
        0x08003700:    6828        (h      LDR      r0,[r5,#0]
        0x08003702:    f000f96d    ..m.    BL       vListInsert ; 0x80039e0
        0x08003706:    e008        ..      B        0x800371a ; prvSwitchTimerLists + 70
        0x08003708:    2000        .       MOVS     r0,#0
        0x0800370a:    4603        .F      MOV      r3,r0
        0x0800370c:    4601        .F      MOV      r1,r0
        0x0800370e:    9000        ..      STR      r0,[sp,#0]
        0x08003710:    4632        2F      MOV      r2,r6
        0x08003712:    4620         F      MOV      r0,r4
        0x08003714:    f000ffa6    ....    BL       xTimerGenericCommand ; 0x8004664
        0x08003718:    b138        8.      CBZ      r0,0x800372a ; prvSwitchTimerLists + 86
        0x0800371a:    6828        (h      LDR      r0,[r5,#0]
        0x0800371c:    6801        .h      LDR      r1,[r0,#0]
        0x0800371e:    2900        .)      CMP      r1,#0
        0x08003720:    d1db        ..      BNE      0x80036da ; prvSwitchTimerLists + 6
        0x08003722:    6869        ih      LDR      r1,[r5,#4]
        0x08003724:    e9c51000    ....    STRD     r1,r0,[r5,#0]
        0x08003728:    bdf8        ..      POP      {r3-r7,pc}
        0x0800372a:    2050        P       MOVS     r0,#0x50
        0x0800372c:    f3808811    ....    MSR      BASEPRI,r0
        0x08003730:    f3bf8f4f    ..O.    DSB      
        0x08003734:    f3bf8f6f    ..o.    ISB      
        0x08003738:    e7fe        ..      B        0x8003738 ; prvSwitchTimerLists + 100
    $d
        0x0800373a:    0000        ..      DCW    0
        0x0800373c:    20000050    P..     DCD    536870992
    $t
    i.prvTaskExitError
    prvTaskExitError
        0x08003740:    4808        .H      LDR      r0,[pc,#32] ; [0x8003764] = 0x20000080
        0x08003742:    6840        @h      LDR      r0,[r0,#4]
        0x08003744:    1c40        @.      ADDS     r0,r0,#1
        0x08003746:    f04f0050    O.P.    MOV      r0,#0x50
        0x0800374a:    f3808811    ....    MSR      BASEPRI,r0
        0x0800374e:    d004        ..      BEQ      0x800375a ; prvTaskExitError + 26
        0x08003750:    f3bf8f4f    ..O.    DSB      
        0x08003754:    f3bf8f6f    ..o.    ISB      
        0x08003758:    e7fe        ..      B        0x8003758 ; prvTaskExitError + 24
        0x0800375a:    f3bf8f4f    ..O.    DSB      
        0x0800375e:    f3bf8f6f    ..o.    ISB      
        0x08003762:    e7fe        ..      B        0x8003762 ; prvTaskExitError + 34
    $d
        0x08003764:    20000080    ...     DCD    536871040
    $t
    i.prvTimerTask
    prvTimerTask
        0x08003768:    4c07        .L      LDR      r4,[pc,#28] ; [0x8003788] = 0x20000050
        0x0800376a:    6820         h      LDR      r0,[r4,#0]
        0x0800376c:    6801        .h      LDR      r1,[r0,#0]
        0x0800376e:    b141        A.      CBZ      r1,0x8003782 ; prvTimerTask + 26
        0x08003770:    68c0        .h      LDR      r0,[r0,#0xc]
        0x08003772:    2100        .!      MOVS     r1,#0
        0x08003774:    f8d00000    ....    LDR.W    r0,[r0,#0]
        0x08003778:    f7ffff2e    ....    BL       prvProcessTimerOrBlockTask ; 0x80035d8
        0x0800377c:    f7fffec6    ....    BL       prvProcessReceivedCommands ; 0x800350c
        0x08003780:    e7f3        ..      B        0x800376a ; prvTimerTask + 2
        0x08003782:    2101        .!      MOVS     r1,#1
        0x08003784:    2000        .       MOVS     r0,#0
        0x08003786:    e7f7        ..      B        0x8003778 ; prvTimerTask + 16
    $d
        0x08003788:    20000050    P..     DCD    536870992
    $t
    i.prvUnlockQueue
    prvUnlockQueue
        0x0800378c:    e92d41f0    -..A    PUSH     {r4-r8,lr}
        0x08003790:    4604        .F      MOV      r4,r0
        0x08003792:    f000f949    ..I.    BL       vPortEnterCritical ; 0x8003a28
        0x08003796:    f9945045    ..EP    LDRSB    r5,[r4,#0x45]
        0x0800379a:    f1040624    ..$.    ADD      r6,r4,#0x24
        0x0800379e:    e009        ..      B        0x80037b4 ; prvUnlockQueue + 40
        0x080037a0:    6a60        `j      LDR      r0,[r4,#0x24]
        0x080037a2:    b148        H.      CBZ      r0,0x80037b8 ; prvUnlockQueue + 44
        0x080037a4:    4630        0F      MOV      r0,r6
        0x080037a6:    f000fe93    ....    BL       xTaskRemoveFromEventList ; 0x80044d0
        0x080037aa:    b108        ..      CBZ      r0,0x80037b0 ; prvUnlockQueue + 36
        0x080037ac:    f000fa18    ....    BL       vTaskMissedYield ; 0x8003be0
        0x080037b0:    1e6d        m.      SUBS     r5,r5,#1
        0x080037b2:    b26d        m.      SXTB     r5,r5
        0x080037b4:    2d00        .-      CMP      r5,#0
        0x080037b6:    dcf3        ..      BGT      0x80037a0 ; prvUnlockQueue + 20
        0x080037b8:    f04f36ff    O..6    MOV      r6,#0xffffffff
        0x080037bc:    f8846045    ..E`    STRB     r6,[r4,#0x45]
        0x080037c0:    f000f952    ..R.    BL       vPortExitCritical ; 0x8003a68
        0x080037c4:    f000f930    ..0.    BL       vPortEnterCritical ; 0x8003a28
        0x080037c8:    f9945044    ..DP    LDRSB    r5,[r4,#0x44]
        0x080037cc:    f1040710    ....    ADD      r7,r4,#0x10
        0x080037d0:    e009        ..      B        0x80037e6 ; prvUnlockQueue + 90
        0x080037d2:    6920         i      LDR      r0,[r4,#0x10]
        0x080037d4:    b148        H.      CBZ      r0,0x80037ea ; prvUnlockQueue + 94
        0x080037d6:    4638        8F      MOV      r0,r7
        0x080037d8:    f000fe7a    ..z.    BL       xTaskRemoveFromEventList ; 0x80044d0
        0x080037dc:    b108        ..      CBZ      r0,0x80037e2 ; prvUnlockQueue + 86
        0x080037de:    f000f9ff    ....    BL       vTaskMissedYield ; 0x8003be0
        0x080037e2:    1e6d        m.      SUBS     r5,r5,#1
        0x080037e4:    b26d        m.      SXTB     r5,r5
        0x080037e6:    2d00        .-      CMP      r5,#0
        0x080037e8:    dcf3        ..      BGT      0x80037d2 ; prvUnlockQueue + 70
        0x080037ea:    f8846044    ..D`    STRB     r6,[r4,#0x44]
        0x080037ee:    e8bd41f0    ...A    POP      {r4-r8,lr}
        0x080037f2:    f000b939    ..9.    B.W      vPortExitCritical ; 0x8003a68
        0x080037f6:    0000        ..      MOVS     r0,r0
    i.pvPortMalloc
    pvPortMalloc
        0x080037f8:    e92d41f0    -..A    PUSH     {r4-r8,lr}
        0x080037fc:    4605        .F      MOV      r5,r0
        0x080037fe:    2700        .'      MOVS     r7,#0
        0x08003800:    f000fa6c    ..l.    BL       vTaskSuspendAll ; 0x8003cdc
        0x08003804:    4e31        1N      LDR      r6,[pc,#196] ; [0x80038cc] = 0x20000068
        0x08003806:    6830        0h      LDR      r0,[r6,#0]
        0x08003808:    b908        ..      CBNZ     r0,0x800380e ; pvPortMalloc + 22
        0x0800380a:    f7fffd79    ..y.    BL       prvHeapInit ; 0x8003300
        0x0800380e:    68f0        .h      LDR      r0,[r6,#0xc]
        0x08003810:    4205        .B      TST      r5,r0
        0x08003812:    d14b        K.      BNE      0x80038ac ; pvPortMalloc + 180
        0x08003814:    b3c5        ..      CBZ      r5,0x8003888 ; pvPortMalloc + 144
        0x08003816:    3508        .5      ADDS     r5,r5,#8
        0x08003818:    0768        h.      LSLS     r0,r5,#29
        0x0800381a:    d00e        ..      BEQ      0x800383a ; pvPortMalloc + 66
        0x0800381c:    f0050007    ....    AND      r0,r5,#7
        0x08003820:    f1c00008    ....    RSB      r0,r0,#8
        0x08003824:    4405        .D      ADD      r5,r5,r0
        0x08003826:    0768        h.      LSLS     r0,r5,#29
        0x08003828:    d007        ..      BEQ      0x800383a ; pvPortMalloc + 66
        0x0800382a:    2050        P       MOVS     r0,#0x50
        0x0800382c:    f3808811    ....    MSR      BASEPRI,r0
        0x08003830:    f3bf8f4f    ..O.    DSB      
        0x08003834:    f3bf8f6f    ..o.    ISB      
        0x08003838:    e7fe        ..      B        0x8003838 ; pvPortMalloc + 64
        0x0800383a:    b32d        -.      CBZ      r5,0x8003888 ; pvPortMalloc + 144
        0x0800383c:    6870        ph      LDR      r0,[r6,#4]
        0x0800383e:    4285        .B      CMP      r5,r0
        0x08003840:    d834        4.      BHI      0x80038ac ; pvPortMalloc + 180
        0x08003842:    4822        "H      LDR      r0,[pc,#136] ; [0x80038cc] = 0x20000068
        0x08003844:    3010        .0      ADDS     r0,r0,#0x10
        0x08003846:    4601        .F      MOV      r1,r0
        0x08003848:    680c        .h      LDR      r4,[r1,#0]
        0x0800384a:    e001        ..      B        0x8003850 ; pvPortMalloc + 88
        0x0800384c:    4620         F      MOV      r0,r4
        0x0800384e:    460c        .F      MOV      r4,r1
        0x08003850:    6861        ah      LDR      r1,[r4,#4]
        0x08003852:    42a9        .B      CMP      r1,r5
        0x08003854:    d202        ..      BCS      0x800385c ; pvPortMalloc + 100
        0x08003856:    6821        !h      LDR      r1,[r4,#0]
        0x08003858:    2900        .)      CMP      r1,#0
        0x0800385a:    d1f7        ..      BNE      0x800384c ; pvPortMalloc + 84
        0x0800385c:    6831        1h      LDR      r1,[r6,#0]
        0x0800385e:    428c        .B      CMP      r4,r1
        0x08003860:    d024        $.      BEQ      0x80038ac ; pvPortMalloc + 180
        0x08003862:    6807        .h      LDR      r7,[r0,#0]
        0x08003864:    6821        !h      LDR      r1,[r4,#0]
        0x08003866:    6001        .`      STR      r1,[r0,#0]
        0x08003868:    6860        `h      LDR      r0,[r4,#4]
        0x0800386a:    3708        .7      ADDS     r7,r7,#8
        0x0800386c:    1b41        A.      SUBS     r1,r0,r5
        0x0800386e:    2910        .)      CMP      r1,#0x10
        0x08003870:    d90f        ..      BLS      0x8003892 ; pvPortMalloc + 154
        0x08003872:    1960        `.      ADDS     r0,r4,r5
        0x08003874:    0742        B.      LSLS     r2,r0,#29
        0x08003876:    d008        ..      BEQ      0x800388a ; pvPortMalloc + 146
        0x08003878:    2050        P       MOVS     r0,#0x50
        0x0800387a:    f3808811    ....    MSR      BASEPRI,r0
        0x0800387e:    f3bf8f4f    ..O.    DSB      
        0x08003882:    f3bf8f6f    ..o.    ISB      
        0x08003886:    e7fe        ..      B        0x8003886 ; pvPortMalloc + 142
        0x08003888:    e010        ..      B        0x80038ac ; pvPortMalloc + 180
        0x0800388a:    6041        A`      STR      r1,[r0,#4]
        0x0800388c:    6065        e`      STR      r5,[r4,#4]
        0x0800388e:    f7fffded    ....    BL       prvInsertBlockIntoFreeList ; 0x800346c
        0x08003892:    6861        ah      LDR      r1,[r4,#4]
        0x08003894:    6870        ph      LDR      r0,[r6,#4]
        0x08003896:    1a40        @.      SUBS     r0,r0,r1
        0x08003898:    6070        p`      STR      r0,[r6,#4]
        0x0800389a:    68b2        .h      LDR      r2,[r6,#8]
        0x0800389c:    4290        .B      CMP      r0,r2
        0x0800389e:    d200        ..      BCS      0x80038a2 ; pvPortMalloc + 170
        0x080038a0:    60b0        .`      STR      r0,[r6,#8]
        0x080038a2:    68f0        .h      LDR      r0,[r6,#0xc]
        0x080038a4:    4301        .C      ORRS     r1,r1,r0
        0x080038a6:    2000        .       MOVS     r0,#0
        0x080038a8:    e9c40100    ....    STRD     r0,r1,[r4,#0]
        0x080038ac:    f000fe48    ..H.    BL       xTaskResumeAll ; 0x8004540
        0x080038b0:    0778        x.      LSLS     r0,r7,#29
        0x080038b2:    d007        ..      BEQ      0x80038c4 ; pvPortMalloc + 204
        0x080038b4:    2050        P       MOVS     r0,#0x50
        0x080038b6:    f3808811    ....    MSR      BASEPRI,r0
        0x080038ba:    f3bf8f4f    ..O.    DSB      
        0x080038be:    f3bf8f6f    ..o.    ISB      
        0x080038c2:    e7fe        ..      B        0x80038c2 ; pvPortMalloc + 202
        0x080038c4:    4638        8F      MOV      r0,r7
        0x080038c6:    e8bd81f0    ....    POP      {r4-r8,pc}
    $d
        0x080038ca:    0000        ..      DCW    0
        0x080038cc:    20000068    h..     DCD    536871016
    $t
    i.pxPortInitialiseStack
    pxPortInitialiseStack
        0x080038d0:    b510        ..      PUSH     {r4,lr}
        0x080038d2:    1f03        ..      SUBS     r3,r0,#4
        0x080038d4:    f04f7480    O..t    MOV      r4,#0x1000000
        0x080038d8:    601c        .`      STR      r4,[r3,#0]
        0x080038da:    1f1b        ..      SUBS     r3,r3,#4
        0x080038dc:    f0210101    !...    BIC      r1,r1,#1
        0x080038e0:    6019        .`      STR      r1,[r3,#0]
        0x080038e2:    1f19        ..      SUBS     r1,r3,#4
        0x080038e4:    4b02        .K      LDR      r3,[pc,#8] ; [0x80038f0] = 0x8003741
        0x080038e6:    600b        .`      STR      r3,[r1,#0]
        0x080038e8:    3914        .9      SUBS     r1,r1,#0x14
        0x080038ea:    3840        @8      SUBS     r0,r0,#0x40
        0x080038ec:    600a        .`      STR      r2,[r1,#0]
        0x080038ee:    bd10        ..      POP      {r4,pc}
    $d
        0x080038f0:    08003741    A7..    DCD    134231873
    $t
    i.system_get_ns
    system_get_ns
        0x080038f4:    e92d41f0    -..A    PUSH     {r4-r8,lr}
        0x080038f8:    4c0d        .L      LDR      r4,[pc,#52] ; [0x8003930] = 0x200005b4
        0x080038fa:    f7fcff6d    ..m.    BL       HAL_GetTick ; 0x80007d8
        0x080038fe:    6822        "h      LDR      r2,[r4,#0]
        0x08003900:    2300        .#      MOVS     r3,#0
        0x08003902:    6a51        Qj      LDR      r1,[r2,#0x24]
        0x08003904:    6ad2        .j      LDR      r2,[r2,#0x2c]
        0x08003906:    4d0b        .M      LDR      r5,[pc,#44] ; [0x8003934] = 0xf4240
        0x08003908:    fba04705    ...G    UMULL    r4,r7,r0,r5
        0x0800390c:    fb037505    ...u    MLA      r5,r3,r5,r7
        0x08003910:    fb005503    ...U    MLA      r5,r0,r3,r5
        0x08003914:    4f07        .O      LDR      r7,[pc,#28] ; [0x8003934] = 0xf4240
        0x08003916:    fba10c07    ....    UMULL    r0,r12,r1,r7
        0x0800391a:    fb03c707    ....    MLA      r7,r3,r7,r12
        0x0800391e:    fb017103    ...q    MLA      r1,r1,r3,r7
        0x08003922:    f7fcfc4b    ..K.    BL       __aeabi_uldivmod ; 0x80001bc
        0x08003926:    1900        ..      ADDS     r0,r0,r4
        0x08003928:    4169        iA      ADCS     r1,r1,r5
        0x0800392a:    e8bd81f0    ....    POP      {r4-r8,pc}
    $d
        0x0800392e:    0000        ..      DCW    0
        0x08003930:    200005b4    ...     DCD    536872372
        0x08003934:    000f4240    @B..    DCD    1000000
    $t
    i.udelay
    udelay
        0x08003938:    b530        0.      PUSH     {r4,r5,lr}
        0x0800393a:    4a0c        .J      LDR      r2,[pc,#48] ; [0x800396c] = 0x200005b4
        0x0800393c:    2100        .!      MOVS     r1,#0
        0x0800393e:    6813        .h      LDR      r3,[r2,#0]
        0x08003940:    6adc        .j      LDR      r4,[r3,#0x2c]
        0x08003942:    f44f727a    O.zr    MOV      r2,#0x3e8
        0x08003946:    4360        `C      MULS     r0,r4,r0
        0x08003948:    fbb0f5f2    ....    UDIV     r5,r0,r2
        0x0800394c:    6a5a        Zj      LDR      r2,[r3,#0x24]
        0x0800394e:    6a58        Xj      LDR      r0,[r3,#0x24]
        0x08003950:    4290        .B      CMP      r0,r2
        0x08003952:    d0fc        ..      BEQ      0x800394e ; udelay + 22
        0x08003954:    d902        ..      BLS      0x800395c ; udelay + 36
        0x08003956:    eba00202    ....    SUB      r2,r0,r2
        0x0800395a:    e002        ..      B        0x8003962 ; udelay + 42
        0x0800395c:    eba40202    ....    SUB      r2,r4,r2
        0x08003960:    4402        .D      ADD      r2,r2,r0
        0x08003962:    4411        .D      ADD      r1,r1,r2
        0x08003964:    4602        .F      MOV      r2,r0
        0x08003966:    42a9        .B      CMP      r1,r5
        0x08003968:    d3f1        ..      BCC      0x800394e ; udelay + 22
        0x0800396a:    bd30        0.      POP      {r4,r5,pc}
    $d
        0x0800396c:    200005b4    ...     DCD    536872372
    $t
    i.uxListRemove
    uxListRemove
        0x08003970:    e9d03201    ...2    LDRD     r3,r2,[r0,#4]
        0x08003974:    6901        .i      LDR      r1,[r0,#0x10]
        0x08003976:    609a        .`      STR      r2,[r3,#8]
        0x08003978:    e9d02301    ...#    LDRD     r2,r3,[r0,#4]
        0x0800397c:    605a        Z`      STR      r2,[r3,#4]
        0x0800397e:    684a        Jh      LDR      r2,[r1,#4]
        0x08003980:    4282        .B      CMP      r2,r0
        0x08003982:    d101        ..      BNE      0x8003988 ; uxListRemove + 24
        0x08003984:    6882        .h      LDR      r2,[r0,#8]
        0x08003986:    604a        J`      STR      r2,[r1,#4]
        0x08003988:    2200        ."      MOVS     r2,#0
        0x0800398a:    6102        .a      STR      r2,[r0,#0x10]
        0x0800398c:    6808        .h      LDR      r0,[r1,#0]
        0x0800398e:    1e40        @.      SUBS     r0,r0,#1
        0x08003990:    6008        .`      STR      r0,[r1,#0]
        0x08003992:    6808        .h      LDR      r0,[r1,#0]
        0x08003994:    4770        pG      BX       lr
        0x08003996:    0000        ..      MOVS     r0,r0
    i.vApplicationGetIdleTaskMemory
    vApplicationGetIdleTaskMemory
        0x08003998:    4b03        .K      LDR      r3,[pc,#12] ; [0x80039a8] = 0x20000c18
        0x0800399a:    6003        .`      STR      r3,[r0,#0]
        0x0800399c:    f103005c    ..\.    ADD      r0,r3,#0x5c
        0x080039a0:    6008        .`      STR      r0,[r1,#0]
        0x080039a2:    2080        .       MOVS     r0,#0x80
        0x080039a4:    6010        .`      STR      r0,[r2,#0]
        0x080039a6:    4770        pG      BX       lr
    $d
        0x080039a8:    20000c18    ...     DCD    536874008
    $t
    i.vApplicationGetTimerTaskMemory
    vApplicationGetTimerTaskMemory
        0x080039ac:    4b04        .K      LDR      r3,[pc,#16] ; [0x80039c0] = 0x20000e74
        0x080039ae:    6003        .`      STR      r3,[r0,#0]
        0x080039b0:    f103005c    ..\.    ADD      r0,r3,#0x5c
        0x080039b4:    6008        .`      STR      r0,[r1,#0]
        0x080039b6:    f44f7080    O..p    MOV      r0,#0x100
        0x080039ba:    6010        .`      STR      r0,[r2,#0]
        0x080039bc:    4770        pG      BX       lr
    $d
        0x080039be:    0000        ..      DCW    0
        0x080039c0:    20000e74    t..     DCD    536874612
    $t
    i.vListInitialise
    vListInitialise
        0x080039c4:    f1000108    ....    ADD      r1,r0,#8
        0x080039c8:    f04f32ff    O..2    MOV      r2,#0xffffffff
        0x080039cc:    e9c01201    ....    STRD     r1,r2,[r0,#4]
        0x080039d0:    60c1        .`      STR      r1,[r0,#0xc]
        0x080039d2:    6101        .a      STR      r1,[r0,#0x10]
        0x080039d4:    2100        .!      MOVS     r1,#0
        0x080039d6:    6001        .`      STR      r1,[r0,#0]
        0x080039d8:    4770        pG      BX       lr
    i.vListInitialiseItem
    vListInitialiseItem
        0x080039da:    2100        .!      MOVS     r1,#0
        0x080039dc:    6101        .a      STR      r1,[r0,#0x10]
        0x080039de:    4770        pG      BX       lr
    i.vListInsert
    vListInsert
        0x080039e0:    b530        0.      PUSH     {r4,r5,lr}
        0x080039e2:    680b        .h      LDR      r3,[r1,#0]
        0x080039e4:    1c5a        Z.      ADDS     r2,r3,#1
        0x080039e6:    d002        ..      BEQ      0x80039ee ; vListInsert + 14
        0x080039e8:    f1000208    ....    ADD      r2,r0,#8
        0x080039ec:    e002        ..      B        0x80039f4 ; vListInsert + 20
        0x080039ee:    6902        .i      LDR      r2,[r0,#0x10]
        0x080039f0:    e004        ..      B        0x80039fc ; vListInsert + 28
        0x080039f2:    4622        "F      MOV      r2,r4
        0x080039f4:    6854        Th      LDR      r4,[r2,#4]
        0x080039f6:    6825        %h      LDR      r5,[r4,#0]
        0x080039f8:    429d        .B      CMP      r5,r3
        0x080039fa:    d9fa        ..      BLS      0x80039f2 ; vListInsert + 18
        0x080039fc:    6853        Sh      LDR      r3,[r2,#4]
        0x080039fe:    604b        K`      STR      r3,[r1,#4]
        0x08003a00:    6099        .`      STR      r1,[r3,#8]
        0x08003a02:    608a        .`      STR      r2,[r1,#8]
        0x08003a04:    6051        Q`      STR      r1,[r2,#4]
        0x08003a06:    6108        .a      STR      r0,[r1,#0x10]
        0x08003a08:    6801        .h      LDR      r1,[r0,#0]
        0x08003a0a:    1c49        I.      ADDS     r1,r1,#1
        0x08003a0c:    6001        .`      STR      r1,[r0,#0]
        0x08003a0e:    bd30        0.      POP      {r4,r5,pc}
    i.vListInsertEnd
    vListInsertEnd
        0x08003a10:    6842        Bh      LDR      r2,[r0,#4]
        0x08003a12:    604a        J`      STR      r2,[r1,#4]
        0x08003a14:    6893        .h      LDR      r3,[r2,#8]
        0x08003a16:    608b        .`      STR      r3,[r1,#8]
        0x08003a18:    6893        .h      LDR      r3,[r2,#8]
        0x08003a1a:    6059        Y`      STR      r1,[r3,#4]
        0x08003a1c:    6091        .`      STR      r1,[r2,#8]
        0x08003a1e:    6108        .a      STR      r0,[r1,#0x10]
        0x08003a20:    6801        .h      LDR      r1,[r0,#0]
        0x08003a22:    1c49        I.      ADDS     r1,r1,#1
        0x08003a24:    6001        .`      STR      r1,[r0,#0]
        0x08003a26:    4770        pG      BX       lr
    i.vPortEnterCritical
    vPortEnterCritical
        0x08003a28:    2050        P       MOVS     r0,#0x50
        0x08003a2a:    f3808811    ....    MSR      BASEPRI,r0
        0x08003a2e:    f3bf8f4f    ..O.    DSB      
        0x08003a32:    f3bf8f6f    ..o.    ISB      
        0x08003a36:    490a        .I      LDR      r1,[pc,#40] ; [0x8003a60] = 0x20000080
        0x08003a38:    6848        Hh      LDR      r0,[r1,#4]
        0x08003a3a:    1c40        @.      ADDS     r0,r0,#1
        0x08003a3c:    6048        H`      STR      r0,[r1,#4]
        0x08003a3e:    2801        .(      CMP      r0,#1
        0x08003a40:    d10c        ..      BNE      0x8003a5c ; vPortEnterCritical + 52
        0x08003a42:    4808        .H      LDR      r0,[pc,#32] ; [0x8003a64] = 0xe000ed04
        0x08003a44:    6800        .h      LDR      r0,[r0,#0]
        0x08003a46:    f0100fff    ....    TST      r0,#0xff
        0x08003a4a:    d007        ..      BEQ      0x8003a5c ; vPortEnterCritical + 52
        0x08003a4c:    2050        P       MOVS     r0,#0x50
        0x08003a4e:    f3808811    ....    MSR      BASEPRI,r0
        0x08003a52:    f3bf8f4f    ..O.    DSB      
        0x08003a56:    f3bf8f6f    ..o.    ISB      
        0x08003a5a:    e7fe        ..      B        0x8003a5a ; vPortEnterCritical + 50
        0x08003a5c:    4770        pG      BX       lr
    $d
        0x08003a5e:    0000        ..      DCW    0
        0x08003a60:    20000080    ...     DCD    536871040
        0x08003a64:    e000ed04    ....    DCD    3758157060
    $t
    i.vPortExitCritical
    vPortExitCritical
        0x08003a68:    4908        .I      LDR      r1,[pc,#32] ; [0x8003a8c] = 0x20000080
        0x08003a6a:    6848        Hh      LDR      r0,[r1,#4]
        0x08003a6c:    b128        (.      CBZ      r0,0x8003a7a ; vPortExitCritical + 18
        0x08003a6e:    1e40        @.      SUBS     r0,r0,#1
        0x08003a70:    6048        H`      STR      r0,[r1,#4]
        0x08003a72:    d101        ..      BNE      0x8003a78 ; vPortExitCritical + 16
        0x08003a74:    f3808811    ....    MSR      BASEPRI,r0
        0x08003a78:    4770        pG      BX       lr
        0x08003a7a:    2050        P       MOVS     r0,#0x50
        0x08003a7c:    f3808811    ....    MSR      BASEPRI,r0
        0x08003a80:    f3bf8f4f    ..O.    DSB      
        0x08003a84:    f3bf8f6f    ..o.    ISB      
        0x08003a88:    e7fe        ..      B        0x8003a88 ; vPortExitCritical + 32
    $d
        0x08003a8a:    0000        ..      DCW    0
        0x08003a8c:    20000080    ...     DCD    536871040
    $t
    i.vPortFree
    vPortFree
        0x08003a90:    b570        p.      PUSH     {r4-r6,lr}
        0x08003a92:    2800        .(      CMP      r0,#0
        0x08003a94:    d027        '.      BEQ      0x8003ae6 ; vPortFree + 86
        0x08003a96:    4d14        .M      LDR      r5,[pc,#80] ; [0x8003ae8] = 0x20000068
        0x08003a98:    f1a00408    ....    SUB      r4,r0,#8
        0x08003a9c:    6861        ah      LDR      r1,[r4,#4]
        0x08003a9e:    68e8        .h      LDR      r0,[r5,#0xc]
        0x08003aa0:    4201        .B      TST      r1,r0
        0x08003aa2:    d107        ..      BNE      0x8003ab4 ; vPortFree + 36
        0x08003aa4:    2050        P       MOVS     r0,#0x50
        0x08003aa6:    f3808811    ....    MSR      BASEPRI,r0
        0x08003aaa:    f3bf8f4f    ..O.    DSB      
        0x08003aae:    f3bf8f6f    ..o.    ISB      
        0x08003ab2:    e7fe        ..      B        0x8003ab2 ; vPortFree + 34
        0x08003ab4:    6822        "h      LDR      r2,[r4,#0]
        0x08003ab6:    b13a        :.      CBZ      r2,0x8003ac8 ; vPortFree + 56
        0x08003ab8:    2050        P       MOVS     r0,#0x50
        0x08003aba:    f3808811    ....    MSR      BASEPRI,r0
        0x08003abe:    f3bf8f4f    ..O.    DSB      
        0x08003ac2:    f3bf8f6f    ..o.    ISB      
        0x08003ac6:    e7fe        ..      B        0x8003ac6 ; vPortFree + 54
        0x08003ac8:    4381        .C      BICS     r1,r1,r0
        0x08003aca:    6061        a`      STR      r1,[r4,#4]
        0x08003acc:    f000f906    ....    BL       vTaskSuspendAll ; 0x8003cdc
        0x08003ad0:    6860        `h      LDR      r0,[r4,#4]
        0x08003ad2:    6869        ih      LDR      r1,[r5,#4]
        0x08003ad4:    4408        .D      ADD      r0,r0,r1
        0x08003ad6:    6068        h`      STR      r0,[r5,#4]
        0x08003ad8:    4620         F      MOV      r0,r4
        0x08003ada:    f7fffcc7    ....    BL       prvInsertBlockIntoFreeList ; 0x800346c
        0x08003ade:    e8bd4070    ..p@    POP      {r4-r6,lr}
        0x08003ae2:    f000bd2d    ..-.    B.W      xTaskResumeAll ; 0x8004540
        0x08003ae6:    bd70        p.      POP      {r4-r6,pc}
    $d
        0x08003ae8:    20000068    h..     DCD    536871016
    $t
    i.vPortSetupTimerInterrupt
    vPortSetupTimerInterrupt
        0x08003aec:    f04f20e0    O..     MOV      r0,#0xe000e000
        0x08003af0:    2100        .!      MOVS     r1,#0
        0x08003af2:    6101        .a      STR      r1,[r0,#0x10]
        0x08003af4:    6181        .a      STR      r1,[r0,#0x18]
        0x08003af6:    4905        .I      LDR      r1,[pc,#20] ; [0x8003b0c] = 0x20000010
        0x08003af8:    f44f727a    O.zr    MOV      r2,#0x3e8
        0x08003afc:    6809        .h      LDR      r1,[r1,#0]
        0x08003afe:    fbb1f1f2    ....    UDIV     r1,r1,r2
        0x08003b02:    1e49        I.      SUBS     r1,r1,#1
        0x08003b04:    6141        Aa      STR      r1,[r0,#0x14]
        0x08003b06:    2107        .!      MOVS     r1,#7
        0x08003b08:    6101        .a      STR      r1,[r0,#0x10]
        0x08003b0a:    4770        pG      BX       lr
    $d
        0x08003b0c:    20000010    ...     DCD    536870928
    $t
    i.vPortValidateInterruptPriority
    vPortValidateInterruptPriority
        0x08003b10:    b510        ..      PUSH     {r4,lr}
        0x08003b12:    f7fcfb3d    ..=.    BL       vPortGetIPSR ; 0x8000190
        0x08003b16:    4911        .I      LDR      r1,[pc,#68] ; [0x8003b5c] = 0x20000080
        0x08003b18:    2810        .(      CMP      r0,#0x10
        0x08003b1a:    d30e        ..      BCC      0x8003b3a ; vPortValidateInterruptPriority + 42
        0x08003b1c:    f10020e0    ...     ADD      r0,r0,#0xe000e000
        0x08003b20:    f89003f0    ....    LDRB     r0,[r0,#0x3f0]
        0x08003b24:    780a        .x      LDRB     r2,[r1,#0]
        0x08003b26:    4290        .B      CMP      r0,r2
        0x08003b28:    d207        ..      BCS      0x8003b3a ; vPortValidateInterruptPriority + 42
        0x08003b2a:    2050        P       MOVS     r0,#0x50
        0x08003b2c:    f3808811    ....    MSR      BASEPRI,r0
        0x08003b30:    f3bf8f4f    ..O.    DSB      
        0x08003b34:    f3bf8f6f    ..o.    ISB      
        0x08003b38:    e7fe        ..      B        0x8003b38 ; vPortValidateInterruptPriority + 40
        0x08003b3a:    4809        .H      LDR      r0,[pc,#36] ; [0x8003b60] = 0xe000ed0c
        0x08003b3c:    6800        .h      LDR      r0,[r0,#0]
        0x08003b3e:    6889        .h      LDR      r1,[r1,#8]
        0x08003b40:    f40060e0    ...`    AND      r0,r0,#0x700
        0x08003b44:    4288        .B      CMP      r0,r1
        0x08003b46:    d907        ..      BLS      0x8003b58 ; vPortValidateInterruptPriority + 72
        0x08003b48:    2050        P       MOVS     r0,#0x50
        0x08003b4a:    f3808811    ....    MSR      BASEPRI,r0
        0x08003b4e:    f3bf8f4f    ..O.    DSB      
        0x08003b52:    f3bf8f6f    ..o.    ISB      
        0x08003b56:    e7fe        ..      B        0x8003b56 ; vPortValidateInterruptPriority + 70
        0x08003b58:    bd10        ..      POP      {r4,pc}
    $d
        0x08003b5a:    0000        ..      DCW    0
        0x08003b5c:    20000080    ...     DCD    536871040
        0x08003b60:    e000ed0c    ....    DCD    3758157068
    $t
    i.vQueueAddToRegistry
    vQueueAddToRegistry
        0x08003b64:    b510        ..      PUSH     {r4,lr}
        0x08003b66:    4b08        .K      LDR      r3,[pc,#32] ; [0x8003b88] = 0x200005fc
        0x08003b68:    2200        ."      MOVS     r2,#0
        0x08003b6a:    bf00        ..      NOP      
        0x08003b6c:    f8534032    S.2@    LDR      r4,[r3,r2,LSL #3]
        0x08003b70:    b11c        ..      CBZ      r4,0x8003b7a ; vQueueAddToRegistry + 22
        0x08003b72:    1c52        R.      ADDS     r2,r2,#1
        0x08003b74:    2a08        .*      CMP      r2,#8
        0x08003b76:    d3f9        ..      BCC      0x8003b6c ; vQueueAddToRegistry + 8
        0x08003b78:    bd10        ..      POP      {r4,pc}
        0x08003b7a:    f8431032    C.2.    STR      r1,[r3,r2,LSL #3]
        0x08003b7e:    eb0301c2    ....    ADD      r1,r3,r2,LSL #3
        0x08003b82:    6048        H`      STR      r0,[r1,#4]
        0x08003b84:    bd10        ..      POP      {r4,pc}
    $d
        0x08003b86:    0000        ..      DCW    0
        0x08003b88:    200005fc    ...     DCD    536872444
    $t
    i.vQueueWaitForMessageRestricted
    vQueueWaitForMessageRestricted
        0x08003b8c:    b570        p.      PUSH     {r4-r6,lr}
        0x08003b8e:    4615        .F      MOV      r5,r2
        0x08003b90:    460e        .F      MOV      r6,r1
        0x08003b92:    4604        .F      MOV      r4,r0
        0x08003b94:    f7ffff48    ..H.    BL       vPortEnterCritical ; 0x8003a28
        0x08003b98:    f9941044    ..D.    LDRSB    r1,[r4,#0x44]
        0x08003b9c:    2000        .       MOVS     r0,#0
        0x08003b9e:    1c49        I.      ADDS     r1,r1,#1
        0x08003ba0:    d101        ..      BNE      0x8003ba6 ; vQueueWaitForMessageRestricted + 26
        0x08003ba2:    f8840044    ..D.    STRB     r0,[r4,#0x44]
        0x08003ba6:    f9941045    ..E.    LDRSB    r1,[r4,#0x45]
        0x08003baa:    1c49        I.      ADDS     r1,r1,#1
        0x08003bac:    d101        ..      BNE      0x8003bb2 ; vQueueWaitForMessageRestricted + 38
        0x08003bae:    f8840045    ..E.    STRB     r0,[r4,#0x45]
        0x08003bb2:    f7ffff59    ..Y.    BL       vPortExitCritical ; 0x8003a68
        0x08003bb6:    6ba0        .k      LDR      r0,[r4,#0x38]
        0x08003bb8:    b928        (.      CBNZ     r0,0x8003bc6 ; vQueueWaitForMessageRestricted + 58
        0x08003bba:    462a        *F      MOV      r2,r5
        0x08003bbc:    4631        1F      MOV      r1,r6
        0x08003bbe:    f1040024    ..$.    ADD      r0,r4,#0x24
        0x08003bc2:    f000f82b    ..+.    BL       vTaskPlaceOnEventListRestricted ; 0x8003c1c
        0x08003bc6:    4620         F      MOV      r0,r4
        0x08003bc8:    e8bd4070    ..p@    POP      {r4-r6,lr}
        0x08003bcc:    f7ffbdde    ....    B.W      prvUnlockQueue ; 0x800378c
    i.vTaskInternalSetTimeOutState
    vTaskInternalSetTimeOutState
        0x08003bd0:    4902        .I      LDR      r1,[pc,#8] ; [0x8003bdc] = 0x20000014
        0x08003bd2:    6a8a        .j      LDR      r2,[r1,#0x28]
        0x08003bd4:    6002        .`      STR      r2,[r0,#0]
        0x08003bd6:    6949        Ii      LDR      r1,[r1,#0x14]
        0x08003bd8:    6041        A`      STR      r1,[r0,#4]
        0x08003bda:    4770        pG      BX       lr
    $d
        0x08003bdc:    20000014    ...     DCD    536870932
    $t
    i.vTaskMissedYield
    vTaskMissedYield
        0x08003be0:    4901        .I      LDR      r1,[pc,#4] ; [0x8003be8] = 0x20000014
        0x08003be2:    2001        .       MOVS     r0,#1
        0x08003be4:    6248        Hb      STR      r0,[r1,#0x24]
        0x08003be6:    4770        pG      BX       lr
    $d
        0x08003be8:    20000014    ...     DCD    536870932
    $t
    i.vTaskPlaceOnEventList
    vTaskPlaceOnEventList
        0x08003bec:    b510        ..      PUSH     {r4,lr}
        0x08003bee:    460c        .F      MOV      r4,r1
        0x08003bf0:    b150        P.      CBZ      r0,0x8003c08 ; vTaskPlaceOnEventList + 28
        0x08003bf2:    4909        .I      LDR      r1,[pc,#36] ; [0x8003c18] = 0x20000014
        0x08003bf4:    6809        .h      LDR      r1,[r1,#0]
        0x08003bf6:    3118        .1      ADDS     r1,r1,#0x18
        0x08003bf8:    f7fffef2    ....    BL       vListInsert ; 0x80039e0
        0x08003bfc:    4620         F      MOV      r0,r4
        0x08003bfe:    e8bd4010    ...@    POP      {r4,lr}
        0x08003c02:    2101        .!      MOVS     r1,#1
        0x08003c04:    f7ffba56    ..V.    B        prvAddCurrentTaskToDelayedList ; 0x80030b4
        0x08003c08:    2050        P       MOVS     r0,#0x50
        0x08003c0a:    f3808811    ....    MSR      BASEPRI,r0
        0x08003c0e:    f3bf8f4f    ..O.    DSB      
        0x08003c12:    f3bf8f6f    ..o.    ISB      
        0x08003c16:    e7fe        ..      B        0x8003c16 ; vTaskPlaceOnEventList + 42
    $d
        0x08003c18:    20000014    ...     DCD    536870932
    $t
    i.vTaskPlaceOnEventListRestricted
    vTaskPlaceOnEventListRestricted
        0x08003c1c:    b570        p.      PUSH     {r4-r6,lr}
        0x08003c1e:    4614        .F      MOV      r4,r2
        0x08003c20:    460d        .F      MOV      r5,r1
        0x08003c22:    b168        h.      CBZ      r0,0x8003c40 ; vTaskPlaceOnEventListRestricted + 36
        0x08003c24:    490a        .I      LDR      r1,[pc,#40] ; [0x8003c50] = 0x20000014
        0x08003c26:    6809        .h      LDR      r1,[r1,#0]
        0x08003c28:    3118        .1      ADDS     r1,r1,#0x18
        0x08003c2a:    f7fffef1    ....    BL       vListInsertEnd ; 0x8003a10
        0x08003c2e:    b10c        ..      CBZ      r4,0x8003c34 ; vTaskPlaceOnEventListRestricted + 24
        0x08003c30:    f04f35ff    O..5    MOV      r5,#0xffffffff
        0x08003c34:    4621        !F      MOV      r1,r4
        0x08003c36:    4628        (F      MOV      r0,r5
        0x08003c38:    e8bd4070    ..p@    POP      {r4-r6,lr}
        0x08003c3c:    f7ffba3a    ..:.    B        prvAddCurrentTaskToDelayedList ; 0x80030b4
        0x08003c40:    2050        P       MOVS     r0,#0x50
        0x08003c42:    f3808811    ....    MSR      BASEPRI,r0
        0x08003c46:    f3bf8f4f    ..O.    DSB      
        0x08003c4a:    f3bf8f6f    ..o.    ISB      
        0x08003c4e:    e7fe        ..      B        0x8003c4e ; vTaskPlaceOnEventListRestricted + 50
    $d
        0x08003c50:    20000014    ...     DCD    536870932
    $t
    i.vTaskStartScheduler
    vTaskStartScheduler
        0x08003c54:    b530        0.      PUSH     {r4,r5,lr}
        0x08003c56:    b087        ..      SUB      sp,sp,#0x1c
        0x08003c58:    2400        .$      MOVS     r4,#0
        0x08003c5a:    9403        ..      STR      r4,[sp,#0xc]
        0x08003c5c:    aa05        ..      ADD      r2,sp,#0x14
        0x08003c5e:    a904        ..      ADD      r1,sp,#0x10
        0x08003c60:    a803        ..      ADD      r0,sp,#0xc
        0x08003c62:    9404        ..      STR      r4,[sp,#0x10]
        0x08003c64:    f7fffe98    ....    BL       vApplicationGetIdleTaskMemory ; 0x8003998
        0x08003c68:    e9dd0103    ....    LDRD     r0,r1,[sp,#0xc]
        0x08003c6c:    9400        ..      STR      r4,[sp,#0]
        0x08003c6e:    e9cd1001    ....    STRD     r1,r0,[sp,#4]
        0x08003c72:    2300        .#      MOVS     r3,#0
        0x08003c74:    a115        ..      ADR      r1,{pc}+0x58 ; 0x8003ccc
        0x08003c76:    4817        .H      LDR      r0,[pc,#92] ; [0x8003cd4] = 0x800334d
        0x08003c78:    9a05        ..      LDR      r2,[sp,#0x14]
        0x08003c7a:    f000fb46    ..F.    BL       xTaskCreateStatic ; 0x800430a
        0x08003c7e:    4d16        .M      LDR      r5,[pc,#88] ; [0x8003cd8] = 0x20000014
        0x08003c80:    2800        .(      CMP      r0,#0
        0x08003c82:    6368        hc      STR      r0,[r5,#0x34]
        0x08003c84:    d01f        ..      BEQ      0x8003cc6 ; vTaskStartScheduler + 114
        0x08003c86:    f000fcbd    ....    BL       xTimerCreateTimerTask ; 0x8004604
        0x08003c8a:    2801        .(      CMP      r0,#1
        0x08003c8c:    d009        ..      BEQ      0x8003ca2 ; vTaskStartScheduler + 78
        0x08003c8e:    1c40        @.      ADDS     r0,r0,#1
        0x08003c90:    d119        ..      BNE      0x8003cc6 ; vTaskStartScheduler + 114
        0x08003c92:    2050        P       MOVS     r0,#0x50
        0x08003c94:    f3808811    ....    MSR      BASEPRI,r0
        0x08003c98:    f3bf8f4f    ..O.    DSB      
        0x08003c9c:    f3bf8f6f    ..o.    ISB      
        0x08003ca0:    e7fe        ..      B        0x8003ca0 ; vTaskStartScheduler + 76
        0x08003ca2:    2050        P       MOVS     r0,#0x50
        0x08003ca4:    f3808811    ....    MSR      BASEPRI,r0
        0x08003ca8:    f3bf8f4f    ..O.    DSB      
        0x08003cac:    f3bf8f6f    ..o.    ISB      
        0x08003cb0:    f04f30ff    O..0    MOV      r0,#0xffffffff
        0x08003cb4:    6328        (c      STR      r0,[r5,#0x30]
        0x08003cb6:    2001        .       MOVS     r0,#1
        0x08003cb8:    61e8        .a      STR      r0,[r5,#0x1c]
        0x08003cba:    616c        la      STR      r4,[r5,#0x14]
        0x08003cbc:    b007        ..      ADD      sp,sp,#0x1c
        0x08003cbe:    e8bd4030    ..0@    POP      {r4,r5,lr}
        0x08003cc2:    f000b845    ..E.    B.W      xPortStartScheduler ; 0x8003d50
        0x08003cc6:    b007        ..      ADD      sp,sp,#0x1c
        0x08003cc8:    bd30        0.      POP      {r4,r5,pc}
    $d
        0x08003cca:    0000        ..      DCW    0
        0x08003ccc:    454c4449    IDLE    DCD    1162626121
        0x08003cd0:    00000000    ....    DCD    0
        0x08003cd4:    0800334d    M3..    DCD    134230861
        0x08003cd8:    20000014    ...     DCD    536870932
    $t
    i.vTaskSuspendAll
    vTaskSuspendAll
        0x08003cdc:    4802        .H      LDR      r0,[pc,#8] ; [0x8003ce8] = 0x20000014
        0x08003cde:    6b81        .k      LDR      r1,[r0,#0x38]
        0x08003ce0:    1c49        I.      ADDS     r1,r1,#1
        0x08003ce2:    6381        .c      STR      r1,[r0,#0x38]
        0x08003ce4:    4770        pG      BX       lr
    $d
        0x08003ce6:    0000        ..      DCW    0
        0x08003ce8:    20000014    ...     DCD    536870932
    $t
    i.vTaskSwitchContext
    vTaskSwitchContext
        0x08003cec:    4816        .H      LDR      r0,[pc,#88] ; [0x8003d48] = 0x20000014
        0x08003cee:    b510        ..      PUSH     {r4,lr}
        0x08003cf0:    6b81        .k      LDR      r1,[r0,#0x38]
        0x08003cf2:    b111        ..      CBZ      r1,0x8003cfa ; vTaskSwitchContext + 14
        0x08003cf4:    2101        .!      MOVS     r1,#1
        0x08003cf6:    6241        Ab      STR      r1,[r0,#0x24]
        0x08003cf8:    bd10        ..      POP      {r4,pc}
        0x08003cfa:    2100        .!      MOVS     r1,#0
        0x08003cfc:    6241        Ab      STR      r1,[r0,#0x24]
        0x08003cfe:    6981        .i      LDR      r1,[r0,#0x18]
        0x08003d00:    4a12        .J      LDR      r2,[pc,#72] ; [0x8003d4c] = 0x2000063c
        0x08003d02:    e001        ..      B        0x8003d08 ; vTaskSwitchContext + 28
        0x08003d04:    b1b9        ..      CBZ      r1,0x8003d36 ; vTaskSwitchContext + 74
        0x08003d06:    1e49        I.      SUBS     r1,r1,#1
        0x08003d08:    eb010381    ....    ADD      r3,r1,r1,LSL #2
        0x08003d0c:    f8523023    R.#0    LDR      r3,[r2,r3,LSL #2]
        0x08003d10:    2b00        .+      CMP      r3,#0
        0x08003d12:    d0f7        ..      BEQ      0x8003d04 ; vTaskSwitchContext + 24
        0x08003d14:    eb010381    ....    ADD      r3,r1,r1,LSL #2
        0x08003d18:    eb020283    ....    ADD      r2,r2,r3,LSL #2
        0x08003d1c:    f1020408    ....    ADD      r4,r2,#8
        0x08003d20:    6853        Sh      LDR      r3,[r2,#4]
        0x08003d22:    685b        [h      LDR      r3,[r3,#4]
        0x08003d24:    6053        S`      STR      r3,[r2,#4]
        0x08003d26:    42a3        .B      CMP      r3,r4
        0x08003d28:    d101        ..      BNE      0x8003d2e ; vTaskSwitchContext + 66
        0x08003d2a:    685b        [h      LDR      r3,[r3,#4]
        0x08003d2c:    6053        S`      STR      r3,[r2,#4]
        0x08003d2e:    68da        .h      LDR      r2,[r3,#0xc]
        0x08003d30:    6002        .`      STR      r2,[r0,#0]
        0x08003d32:    6181        .a      STR      r1,[r0,#0x18]
        0x08003d34:    bd10        ..      POP      {r4,pc}
        0x08003d36:    2050        P       MOVS     r0,#0x50
        0x08003d38:    f3808811    ....    MSR      BASEPRI,r0
        0x08003d3c:    f3bf8f4f    ..O.    DSB      
        0x08003d40:    f3bf8f6f    ..o.    ISB      
        0x08003d44:    e7fe        ..      B        0x8003d44 ; vTaskSwitchContext + 88
    $d
        0x08003d46:    0000        ..      DCW    0
        0x08003d48:    20000014    ...     DCD    536870932
        0x08003d4c:    2000063c    <..     DCD    536872508
    $t
    i.xPortStartScheduler
    xPortStartScheduler
        0x08003d50:    b51c        ..      PUSH     {r2-r4,lr}
        0x08003d52:    4926        &I      LDR      r1,[pc,#152] ; [0x8003dec] = 0xe000e400
        0x08003d54:    7808        .x      LDRB     r0,[r1,#0]
        0x08003d56:    9001        ..      STR      r0,[sp,#4]
        0x08003d58:    20ff        .       MOVS     r0,#0xff
        0x08003d5a:    7008        .p      STRB     r0,[r1,#0]
        0x08003d5c:    7808        .x      LDRB     r0,[r1,#0]
        0x08003d5e:    f88d0000    ....    STRB     r0,[sp,#0]
        0x08003d62:    f89d0000    ....    LDRB     r0,[sp,#0]
        0x08003d66:    f89d2000    ...     LDRB     r2,[sp,#0]
        0x08003d6a:    f00000f0    ....    AND      r0,r0,#0xf0
        0x08003d6e:    4290        .B      CMP      r0,r2
        0x08003d70:    d007        ..      BEQ      0x8003d82 ; xPortStartScheduler + 50
        0x08003d72:    2050        P       MOVS     r0,#0x50
        0x08003d74:    f3808811    ....    MSR      BASEPRI,r0
        0x08003d78:    f3bf8f4f    ..O.    DSB      
        0x08003d7c:    f3bf8f6f    ..o.    ISB      
        0x08003d80:    e7fe        ..      B        0x8003d80 ; xPortStartScheduler + 48
        0x08003d82:    f89d0000    ....    LDRB     r0,[sp,#0]
        0x08003d86:    4b1a        .K      LDR      r3,[pc,#104] ; [0x8003df0] = 0x20000080
        0x08003d88:    f0000050    ..P.    AND      r0,r0,#0x50
        0x08003d8c:    7018        .p      STRB     r0,[r3,#0]
        0x08003d8e:    2007        .       MOVS     r0,#7
        0x08003d90:    6098        .`      STR      r0,[r3,#8]
        0x08003d92:    e005        ..      B        0x8003da0 ; xPortStartScheduler + 80
        0x08003d94:    f89d2000    ...     LDRB     r2,[sp,#0]
        0x08003d98:    0052        R.      LSLS     r2,r2,#1
        0x08003d9a:    f88d2000    ...     STRB     r2,[sp,#0]
        0x08003d9e:    1e40        @.      SUBS     r0,r0,#1
        0x08003da0:    f89d2000    ...     LDRB     r2,[sp,#0]
        0x08003da4:    0612        ..      LSLS     r2,r2,#24
        0x08003da6:    d4f5        ..      BMI      0x8003d94 ; xPortStartScheduler + 68
        0x08003da8:    6098        .`      STR      r0,[r3,#8]
        0x08003daa:    2803        .(      CMP      r0,#3
        0x08003dac:    d007        ..      BEQ      0x8003dbe ; xPortStartScheduler + 110
        0x08003dae:    2050        P       MOVS     r0,#0x50
        0x08003db0:    f3808811    ....    MSR      BASEPRI,r0
        0x08003db4:    f3bf8f4f    ..O.    DSB      
        0x08003db8:    f3bf8f6f    ..o.    ISB      
        0x08003dbc:    e7fe        ..      B        0x8003dbc ; xPortStartScheduler + 108
        0x08003dbe:    f44f7040    O.@p    MOV      r0,#0x300
        0x08003dc2:    6098        .`      STR      r0,[r3,#8]
        0x08003dc4:    9801        ..      LDR      r0,[sp,#4]
        0x08003dc6:    7008        .p      STRB     r0,[r1,#0]
        0x08003dc8:    480a        .H      LDR      r0,[pc,#40] ; [0x8003df4] = 0xe000ed20
        0x08003dca:    6801        .h      LDR      r1,[r0,#0]
        0x08003dcc:    f4410170    A.p.    ORR      r1,r1,#0xf00000
        0x08003dd0:    6001        .`      STR      r1,[r0,#0]
        0x08003dd2:    6801        .h      LDR      r1,[r0,#0]
        0x08003dd4:    f0414170    A.pA    ORR      r1,r1,#0xf0000000
        0x08003dd8:    6001        .`      STR      r1,[r0,#0]
        0x08003dda:    f7fffe87    ....    BL       vPortSetupTimerInterrupt ; 0x8003aec
        0x08003dde:    2000        .       MOVS     r0,#0
        0x08003de0:    6058        X`      STR      r0,[r3,#4]
        0x08003de2:    f7fcf99f    ....    BL       __asm___6_port_c_39a90d8d__prvStartFirstTask ; 0x8000124
        0x08003de6:    2000        .       MOVS     r0,#0
        0x08003de8:    bd1c        ..      POP      {r2-r4,pc}
    $d
        0x08003dea:    0000        ..      DCW    0
        0x08003dec:    e000e400    ....    DCD    3758154752
        0x08003df0:    20000080    ...     DCD    536871040
        0x08003df4:    e000ed20     ...    DCD    3758157088
    $t
    i.xQueueGenericCreateStatic
    xQueueGenericCreateStatic
        0x08003df8:    b538        8.      PUSH     {r3-r5,lr}
        0x08003dfa:    9d04        ..      LDR      r5,[sp,#0x10]
        0x08003dfc:    b118        ..      CBZ      r0,0x8003e06 ; xQueueGenericCreateStatic + 14
        0x08003dfe:    b153        S.      CBZ      r3,0x8003e16 ; xQueueGenericCreateStatic + 30
        0x08003e00:    b1ca        ..      CBZ      r2,0x8003e36 ; xQueueGenericCreateStatic + 62
        0x08003e02:    b181        ..      CBZ      r1,0x8003e26 ; xQueueGenericCreateStatic + 46
        0x08003e04:    e020         .      B        0x8003e48 ; xQueueGenericCreateStatic + 80
        0x08003e06:    2050        P       MOVS     r0,#0x50
        0x08003e08:    f3808811    ....    MSR      BASEPRI,r0
        0x08003e0c:    f3bf8f4f    ..O.    DSB      
        0x08003e10:    f3bf8f6f    ..o.    ISB      
        0x08003e14:    e7fe        ..      B        0x8003e14 ; xQueueGenericCreateStatic + 28
        0x08003e16:    2050        P       MOVS     r0,#0x50
        0x08003e18:    f3808811    ....    MSR      BASEPRI,r0
        0x08003e1c:    f3bf8f4f    ..O.    DSB      
        0x08003e20:    f3bf8f6f    ..o.    ISB      
        0x08003e24:    e7fe        ..      B        0x8003e24 ; xQueueGenericCreateStatic + 44
        0x08003e26:    2050        P       MOVS     r0,#0x50
        0x08003e28:    f3808811    ....    MSR      BASEPRI,r0
        0x08003e2c:    f3bf8f4f    ..O.    DSB      
        0x08003e30:    f3bf8f6f    ..o.    ISB      
        0x08003e34:    e7fe        ..      B        0x8003e34 ; xQueueGenericCreateStatic + 60
        0x08003e36:    b139        9.      CBZ      r1,0x8003e48 ; xQueueGenericCreateStatic + 80
        0x08003e38:    2050        P       MOVS     r0,#0x50
        0x08003e3a:    f3808811    ....    MSR      BASEPRI,r0
        0x08003e3e:    f3bf8f4f    ..O.    DSB      
        0x08003e42:    f3bf8f6f    ..o.    ISB      
        0x08003e46:    e7fe        ..      B        0x8003e46 ; xQueueGenericCreateStatic + 78
        0x08003e48:    2450        P$      MOVS     r4,#0x50
        0x08003e4a:    461c        .F      MOV      r4,r3
        0x08003e4c:    2301        .#      MOVS     r3,#1
        0x08003e4e:    f8843046    ..F0    STRB     r3,[r4,#0x46]
        0x08003e52:    462b        +F      MOV      r3,r5
        0x08003e54:    9400        ..      STR      r4,[sp,#0]
        0x08003e56:    f7fffaa9    ....    BL       prvInitialiseNewQueue ; 0x80033ac
        0x08003e5a:    4620         F      MOV      r0,r4
        0x08003e5c:    bd38        8.      POP      {r3-r5,pc}
        0x08003e5e:    0000        ..      MOVS     r0,r0
    i.xQueueGenericReset
    xQueueGenericReset
        0x08003e60:    b570        p.      PUSH     {r4-r6,lr}
        0x08003e62:    460d        .F      MOV      r5,r1
        0x08003e64:    0004        ..      MOVS     r4,r0
        0x08003e66:    d025        %.      BEQ      0x8003eb4 ; xQueueGenericReset + 84
        0x08003e68:    f7fffdde    ....    BL       vPortEnterCritical ; 0x8003a28
        0x08003e6c:    e9d4200f    ...     LDRD     r2,r0,[r4,#0x3c]
        0x08003e70:    6821        !h      LDR      r1,[r4,#0]
        0x08003e72:    fb021100    ....    MLA      r1,r2,r0,r1
        0x08003e76:    6061        a`      STR      r1,[r4,#4]
        0x08003e78:    2100        .!      MOVS     r1,#0
        0x08003e7a:    63a1        .c      STR      r1,[r4,#0x38]
        0x08003e7c:    6821        !h      LDR      r1,[r4,#0]
        0x08003e7e:    60a1        .`      STR      r1,[r4,#8]
        0x08003e80:    460a        .F      MOV      r2,r1
        0x08003e82:    e9d4010f    ....    LDRD     r0,r1,[r4,#0x3c]
        0x08003e86:    1e40        @.      SUBS     r0,r0,#1
        0x08003e88:    fb002101    ...!    MLA      r1,r0,r1,r2
        0x08003e8c:    60e1        .`      STR      r1,[r4,#0xc]
        0x08003e8e:    4621        !F      MOV      r1,r4
        0x08003e90:    f04f30ff    O..0    MOV      r0,#0xffffffff
        0x08003e94:    f8010f44    ..D.    STRB     r0,[r1,#0x44]!
        0x08003e98:    7048        Hp      STRB     r0,[r1,#1]
        0x08003e9a:    f1040010    ....    ADD      r0,r4,#0x10
        0x08003e9e:    b18d        ..      CBZ      r5,0x8003ec4 ; xQueueGenericReset + 100
        0x08003ea0:    f7fffd90    ....    BL       vListInitialise ; 0x80039c4
        0x08003ea4:    f1040024    ..$.    ADD      r0,r4,#0x24
        0x08003ea8:    f7fffd8c    ....    BL       vListInitialise ; 0x80039c4
        0x08003eac:    f7fffddc    ....    BL       vPortExitCritical ; 0x8003a68
        0x08003eb0:    2001        .       MOVS     r0,#1
        0x08003eb2:    bd70        p.      POP      {r4-r6,pc}
        0x08003eb4:    2050        P       MOVS     r0,#0x50
        0x08003eb6:    f3808811    ....    MSR      BASEPRI,r0
        0x08003eba:    f3bf8f4f    ..O.    DSB      
        0x08003ebe:    f3bf8f6f    ..o.    ISB      
        0x08003ec2:    e7fe        ..      B        0x8003ec2 ; xQueueGenericReset + 98
        0x08003ec4:    6921        !i      LDR      r1,[r4,#0x10]
        0x08003ec6:    2900        .)      CMP      r1,#0
        0x08003ec8:    d0f0        ..      BEQ      0x8003eac ; xQueueGenericReset + 76
        0x08003eca:    f000fb01    ....    BL       xTaskRemoveFromEventList ; 0x80044d0
        0x08003ece:    2800        .(      CMP      r0,#0
        0x08003ed0:    d0ec        ..      BEQ      0x8003eac ; xQueueGenericReset + 76
        0x08003ed2:    4904        .I      LDR      r1,[pc,#16] ; [0x8003ee4] = 0xe000ed04
        0x08003ed4:    f04f5080    O..P    MOV      r0,#0x10000000
        0x08003ed8:    6008        .`      STR      r0,[r1,#0]
        0x08003eda:    f3bf8f4f    ..O.    DSB      
        0x08003ede:    f3bf8f6f    ..o.    ISB      
        0x08003ee2:    e7e3        ..      B        0x8003eac ; xQueueGenericReset + 76
    $d
        0x08003ee4:    e000ed04    ....    DCD    3758157060
    $t
    i.xQueueGenericSend
    xQueueGenericSend
        0x08003ee8:    e92d47ff    -..G    PUSH     {r0-r10,lr}
        0x08003eec:    b082        ..      SUB      sp,sp,#8
        0x08003eee:    461d        .F      MOV      r5,r3
        0x08003ef0:    468a        .F      MOV      r10,r1
        0x08003ef2:    f04f0800    O...    MOV      r8,#0
        0x08003ef6:    0004        ..      MOVS     r4,r0
        0x08003ef8:    d003        ..      BEQ      0x8003f02 ; xQueueGenericSend + 26
        0x08003efa:    f1ba0f00    ....    CMP      r10,#0
        0x08003efe:    d008        ..      BEQ      0x8003f12 ; xQueueGenericSend + 42
        0x08003f00:    e011        ..      B        0x8003f26 ; xQueueGenericSend + 62
        0x08003f02:    2050        P       MOVS     r0,#0x50
        0x08003f04:    f3808811    ....    MSR      BASEPRI,r0
        0x08003f08:    f3bf8f4f    ..O.    DSB      
        0x08003f0c:    f3bf8f6f    ..o.    ISB      
        0x08003f10:    e7fe        ..      B        0x8003f10 ; xQueueGenericSend + 40
        0x08003f12:    6c20         l      LDR      r0,[r4,#0x40]
        0x08003f14:    b138        8.      CBZ      r0,0x8003f26 ; xQueueGenericSend + 62
        0x08003f16:    2050        P       MOVS     r0,#0x50
        0x08003f18:    f3808811    ....    MSR      BASEPRI,r0
        0x08003f1c:    f3bf8f4f    ..O.    DSB      
        0x08003f20:    f3bf8f6f    ..o.    ISB      
        0x08003f24:    e7fe        ..      B        0x8003f24 ; xQueueGenericSend + 60
        0x08003f26:    2d02        .-      CMP      r5,#2
        0x08003f28:    d10a        ..      BNE      0x8003f40 ; xQueueGenericSend + 88
        0x08003f2a:    6be0        .k      LDR      r0,[r4,#0x3c]
        0x08003f2c:    2801        .(      CMP      r0,#1
        0x08003f2e:    d007        ..      BEQ      0x8003f40 ; xQueueGenericSend + 88
        0x08003f30:    2050        P       MOVS     r0,#0x50
        0x08003f32:    f3808811    ....    MSR      BASEPRI,r0
        0x08003f36:    f3bf8f4f    ..O.    DSB      
        0x08003f3a:    f3bf8f6f    ..o.    ISB      
        0x08003f3e:    e7fe        ..      B        0x8003f3e ; xQueueGenericSend + 86
        0x08003f40:    f000fa0e    ....    BL       xTaskGetSchedulerState ; 0x8004360
        0x08003f44:    4f3f        ?O      LDR      r7,[pc,#252] ; [0x8004044] = 0xe000ed04
        0x08003f46:    f04f0900    O...    MOV      r9,#0
        0x08003f4a:    f04f5680    O..V    MOV      r6,#0x10000000
        0x08003f4e:    b948        H.      CBNZ     r0,0x8003f64 ; xQueueGenericSend + 124
        0x08003f50:    9804        ..      LDR      r0,[sp,#0x10]
        0x08003f52:    b138        8.      CBZ      r0,0x8003f64 ; xQueueGenericSend + 124
        0x08003f54:    2050        P       MOVS     r0,#0x50
        0x08003f56:    f3808811    ....    MSR      BASEPRI,r0
        0x08003f5a:    f3bf8f4f    ..O.    DSB      
        0x08003f5e:    f3bf8f6f    ..o.    ISB      
        0x08003f62:    e7fe        ..      B        0x8003f62 ; xQueueGenericSend + 122
        0x08003f64:    f7fffd60    ..`.    BL       vPortEnterCritical ; 0x8003a28
        0x08003f68:    6ba0        .k      LDR      r0,[r4,#0x38]
        0x08003f6a:    6be1        .k      LDR      r1,[r4,#0x3c]
        0x08003f6c:    4288        .B      CMP      r0,r1
        0x08003f6e:    d307        ..      BCC      0x8003f80 ; xQueueGenericSend + 152
        0x08003f70:    2d02        .-      CMP      r5,#2
        0x08003f72:    d005        ..      BEQ      0x8003f80 ; xQueueGenericSend + 152
        0x08003f74:    9804        ..      LDR      r0,[sp,#0x10]
        0x08003f76:    b1d0        ..      CBZ      r0,0x8003fae ; xQueueGenericSend + 198
        0x08003f78:    f1b80f00    ....    CMP      r8,#0
        0x08003f7c:    d01a        ..      BEQ      0x8003fb4 ; xQueueGenericSend + 204
        0x08003f7e:    e01e        ..      B        0x8003fbe ; xQueueGenericSend + 214
        0x08003f80:    462a        *F      MOV      r2,r5
        0x08003f82:    4651        QF      MOV      r1,r10
        0x08003f84:    4620         F      MOV      r0,r4
        0x08003f86:    f7fff96a    ..j.    BL       prvCopyDataToQueue ; 0x800325e
        0x08003f8a:    6a61        aj      LDR      r1,[r4,#0x24]
        0x08003f8c:    b119        ..      CBZ      r1,0x8003f96 ; xQueueGenericSend + 174
        0x08003f8e:    f1040024    ..$.    ADD      r0,r4,#0x24
        0x08003f92:    f000fa9d    ....    BL       xTaskRemoveFromEventList ; 0x80044d0
        0x08003f96:    b120         .      CBZ      r0,0x8003fa2 ; xQueueGenericSend + 186
        0x08003f98:    603e        >`      STR      r6,[r7,#0]
        0x08003f9a:    f3bf8f4f    ..O.    DSB      
        0x08003f9e:    f3bf8f6f    ..o.    ISB      
        0x08003fa2:    f7fffd61    ..a.    BL       vPortExitCritical ; 0x8003a68
        0x08003fa6:    2001        .       MOVS     r0,#1
        0x08003fa8:    b006        ..      ADD      sp,sp,#0x18
        0x08003faa:    e8bd87f0    ....    POP      {r4-r10,pc}
        0x08003fae:    f7fffd5b    ..[.    BL       vPortExitCritical ; 0x8003a68
        0x08003fb2:    e022        ".      B        0x8003ffa ; xQueueGenericSend + 274
        0x08003fb4:    4668        hF      MOV      r0,sp
        0x08003fb6:    f7fffe0b    ....    BL       vTaskInternalSetTimeOutState ; 0x8003bd0
        0x08003fba:    f04f0801    O...    MOV      r8,#1
        0x08003fbe:    f7fffd53    ..S.    BL       vPortExitCritical ; 0x8003a68
        0x08003fc2:    f7fffe8b    ....    BL       vTaskSuspendAll ; 0x8003cdc
        0x08003fc6:    f7fffd2f    ../.    BL       vPortEnterCritical ; 0x8003a28
        0x08003fca:    f9940044    ..D.    LDRSB    r0,[r4,#0x44]
        0x08003fce:    1c40        @.      ADDS     r0,r0,#1
        0x08003fd0:    d101        ..      BNE      0x8003fd6 ; xQueueGenericSend + 238
        0x08003fd2:    f8849044    ..D.    STRB     r9,[r4,#0x44]
        0x08003fd6:    f9940045    ..E.    LDRSB    r0,[r4,#0x45]
        0x08003fda:    1c40        @.      ADDS     r0,r0,#1
        0x08003fdc:    d101        ..      BNE      0x8003fe2 ; xQueueGenericSend + 250
        0x08003fde:    f8849045    ..E.    STRB     r9,[r4,#0x45]
        0x08003fe2:    f7fffd41    ..A.    BL       vPortExitCritical ; 0x8003a68
        0x08003fe6:    a904        ..      ADD      r1,sp,#0x10
        0x08003fe8:    4668        hF      MOV      r0,sp
        0x08003fea:    f000f927    ..'.    BL       xTaskCheckForTimeOut ; 0x800423c
        0x08003fee:    b130        0.      CBZ      r0,0x8003ffe ; xQueueGenericSend + 278
        0x08003ff0:    4620         F      MOV      r0,r4
        0x08003ff2:    f7fffbcb    ....    BL       prvUnlockQueue ; 0x800378c
        0x08003ff6:    f000faa3    ....    BL       xTaskResumeAll ; 0x8004540
        0x08003ffa:    2000        .       MOVS     r0,#0
        0x08003ffc:    e7d4        ..      B        0x8003fa8 ; xQueueGenericSend + 192
        0x08003ffe:    f7fffd13    ....    BL       vPortEnterCritical ; 0x8003a28
        0x08004002:    6ba0        .k      LDR      r0,[r4,#0x38]
        0x08004004:    6be1        .k      LDR      r1,[r4,#0x3c]
        0x08004006:    4288        .B      CMP      r0,r1
        0x08004008:    d113        ..      BNE      0x8004032 ; xQueueGenericSend + 330
        0x0800400a:    f7fffd2d    ..-.    BL       vPortExitCritical ; 0x8003a68
        0x0800400e:    f1040010    ....    ADD      r0,r4,#0x10
        0x08004012:    9904        ..      LDR      r1,[sp,#0x10]
        0x08004014:    f7fffdea    ....    BL       vTaskPlaceOnEventList ; 0x8003bec
        0x08004018:    4620         F      MOV      r0,r4
        0x0800401a:    f7fffbb7    ....    BL       prvUnlockQueue ; 0x800378c
        0x0800401e:    f000fa8f    ....    BL       xTaskResumeAll ; 0x8004540
        0x08004022:    2800        .(      CMP      r0,#0
        0x08004024:    d19e        ..      BNE      0x8003f64 ; xQueueGenericSend + 124
        0x08004026:    603e        >`      STR      r6,[r7,#0]
        0x08004028:    f3bf8f4f    ..O.    DSB      
        0x0800402c:    f3bf8f6f    ..o.    ISB      
        0x08004030:    e798        ..      B        0x8003f64 ; xQueueGenericSend + 124
        0x08004032:    f7fffd19    ....    BL       vPortExitCritical ; 0x8003a68
        0x08004036:    4620         F      MOV      r0,r4
        0x08004038:    f7fffba8    ....    BL       prvUnlockQueue ; 0x800378c
        0x0800403c:    f000fa80    ....    BL       xTaskResumeAll ; 0x8004540
        0x08004040:    e790        ..      B        0x8003f64 ; xQueueGenericSend + 124
    $d
        0x08004042:    0000        ..      DCW    0
        0x08004044:    e000ed04    ....    DCD    3758157060
    $t
    i.xQueueGenericSendFromISR
    xQueueGenericSendFromISR
        0x08004048:    e92d47f0    -..G    PUSH     {r4-r10,lr}
        0x0800404c:    461f        .F      MOV      r7,r3
        0x0800404e:    4690        .F      MOV      r8,r2
        0x08004050:    4689        .F      MOV      r9,r1
        0x08004052:    0004        ..      MOVS     r4,r0
        0x08004054:    d003        ..      BEQ      0x800405e ; xQueueGenericSendFromISR + 22
        0x08004056:    f1b90f00    ....    CMP      r9,#0
        0x0800405a:    d008        ..      BEQ      0x800406e ; xQueueGenericSendFromISR + 38
        0x0800405c:    e011        ..      B        0x8004082 ; xQueueGenericSendFromISR + 58
        0x0800405e:    2050        P       MOVS     r0,#0x50
        0x08004060:    f3808811    ....    MSR      BASEPRI,r0
        0x08004064:    f3bf8f4f    ..O.    DSB      
        0x08004068:    f3bf8f6f    ..o.    ISB      
        0x0800406c:    e7fe        ..      B        0x800406c ; xQueueGenericSendFromISR + 36
        0x0800406e:    6c20         l      LDR      r0,[r4,#0x40]
        0x08004070:    b138        8.      CBZ      r0,0x8004082 ; xQueueGenericSendFromISR + 58
        0x08004072:    2050        P       MOVS     r0,#0x50
        0x08004074:    f3808811    ....    MSR      BASEPRI,r0
        0x08004078:    f3bf8f4f    ..O.    DSB      
        0x0800407c:    f3bf8f6f    ..o.    ISB      
        0x08004080:    e7fe        ..      B        0x8004080 ; xQueueGenericSendFromISR + 56
        0x08004082:    2f02        ./      CMP      r7,#2
        0x08004084:    d10a        ..      BNE      0x800409c ; xQueueGenericSendFromISR + 84
        0x08004086:    6be0        .k      LDR      r0,[r4,#0x3c]
        0x08004088:    2801        .(      CMP      r0,#1
        0x0800408a:    d007        ..      BEQ      0x800409c ; xQueueGenericSendFromISR + 84
        0x0800408c:    2050        P       MOVS     r0,#0x50
        0x0800408e:    f3808811    ....    MSR      BASEPRI,r0
        0x08004092:    f3bf8f4f    ..O.    DSB      
        0x08004096:    f3bf8f6f    ..o.    ISB      
        0x0800409a:    e7fe        ..      B        0x800409a ; xQueueGenericSendFromISR + 82
        0x0800409c:    f7fffd38    ..8.    BL       vPortValidateInterruptPriority ; 0x8003b10
        0x080040a0:    2050        P       MOVS     r0,#0x50
        0x080040a2:    f3ef8611    ....    MRS      r6,BASEPRI
        0x080040a6:    f3808811    ....    MSR      BASEPRI,r0
        0x080040aa:    f3bf8f4f    ..O.    DSB      
        0x080040ae:    f3bf8f6f    ..o.    ISB      
        0x080040b2:    6ba0        .k      LDR      r0,[r4,#0x38]
        0x080040b4:    6be1        .k      LDR      r1,[r4,#0x3c]
        0x080040b6:    4288        .B      CMP      r0,r1
        0x080040b8:    d306        ..      BCC      0x80040c8 ; xQueueGenericSendFromISR + 128
        0x080040ba:    2f02        ./      CMP      r7,#2
        0x080040bc:    d004        ..      BEQ      0x80040c8 ; xQueueGenericSendFromISR + 128
        0x080040be:    2000        .       MOVS     r0,#0
        0x080040c0:    f3868811    ....    MSR      BASEPRI,r6
        0x080040c4:    e8bd87f0    ....    POP      {r4-r10,pc}
        0x080040c8:    f9945045    ..EP    LDRSB    r5,[r4,#0x45]
        0x080040cc:    463a        :F      MOV      r2,r7
        0x080040ce:    4649        IF      MOV      r1,r9
        0x080040d0:    4620         F      MOV      r0,r4
        0x080040d2:    f7fff8c4    ....    BL       prvCopyDataToQueue ; 0x800325e
        0x080040d6:    1c68        h.      ADDS     r0,r5,#1
        0x080040d8:    d004        ..      BEQ      0x80040e4 ; xQueueGenericSendFromISR + 156
        0x080040da:    1c6d        m.      ADDS     r5,r5,#1
        0x080040dc:    f8845045    ..EP    STRB     r5,[r4,#0x45]
        0x080040e0:    2001        .       MOVS     r0,#1
        0x080040e2:    e7ed        ..      B        0x80040c0 ; xQueueGenericSendFromISR + 120
        0x080040e4:    6a60        `j      LDR      r0,[r4,#0x24]
        0x080040e6:    2800        .(      CMP      r0,#0
        0x080040e8:    d0fa        ..      BEQ      0x80040e0 ; xQueueGenericSendFromISR + 152
        0x080040ea:    f1040024    ..$.    ADD      r0,r4,#0x24
        0x080040ee:    f000f9ef    ....    BL       xTaskRemoveFromEventList ; 0x80044d0
        0x080040f2:    2800        .(      CMP      r0,#0
        0x080040f4:    d0f4        ..      BEQ      0x80040e0 ; xQueueGenericSendFromISR + 152
        0x080040f6:    f1b80f00    ....    CMP      r8,#0
        0x080040fa:    d0f1        ..      BEQ      0x80040e0 ; xQueueGenericSendFromISR + 152
        0x080040fc:    2101        .!      MOVS     r1,#1
        0x080040fe:    f8c81000    ....    STR      r1,[r8,#0]
        0x08004102:    e7ed        ..      B        0x80040e0 ; xQueueGenericSendFromISR + 152
    i.xQueueReceive
    xQueueReceive
        0x08004104:    e92d47f7    -..G    PUSH     {r0-r2,r4-r10,lr}
        0x08004108:    2600        .&      MOVS     r6,#0
        0x0800410a:    b083        ..      SUB      sp,sp,#0xc
        0x0800410c:    468a        .F      MOV      r10,r1
        0x0800410e:    0004        ..      MOVS     r4,r0
        0x08004110:    d003        ..      BEQ      0x800411a ; xQueueReceive + 22
        0x08004112:    f1ba0f00    ....    CMP      r10,#0
        0x08004116:    d008        ..      BEQ      0x800412a ; xQueueReceive + 38
        0x08004118:    e011        ..      B        0x800413e ; xQueueReceive + 58
        0x0800411a:    2050        P       MOVS     r0,#0x50
        0x0800411c:    f3808811    ....    MSR      BASEPRI,r0
        0x08004120:    f3bf8f4f    ..O.    DSB      
        0x08004124:    f3bf8f6f    ..o.    ISB      
        0x08004128:    e7fe        ..      B        0x8004128 ; xQueueReceive + 36
        0x0800412a:    6c20         l      LDR      r0,[r4,#0x40]
        0x0800412c:    b138        8.      CBZ      r0,0x800413e ; xQueueReceive + 58
        0x0800412e:    2050        P       MOVS     r0,#0x50
        0x08004130:    f3808811    ....    MSR      BASEPRI,r0
        0x08004134:    f3bf8f4f    ..O.    DSB      
        0x08004138:    f3bf8f6f    ..o.    ISB      
        0x0800413c:    e7fe        ..      B        0x800413c ; xQueueReceive + 56
        0x0800413e:    f000f90f    ....    BL       xTaskGetSchedulerState ; 0x8004360
        0x08004142:    f8df80f4    ....    LDR      r8,[pc,#244] ; [0x8004238] = 0xe000ed04
        0x08004146:    f04f0900    O...    MOV      r9,#0
        0x0800414a:    f04f5780    O..W    MOV      r7,#0x10000000
        0x0800414e:    b948        H.      CBNZ     r0,0x8004164 ; xQueueReceive + 96
        0x08004150:    9805        ..      LDR      r0,[sp,#0x14]
        0x08004152:    b138        8.      CBZ      r0,0x8004164 ; xQueueReceive + 96
        0x08004154:    2050        P       MOVS     r0,#0x50
        0x08004156:    f3808811    ....    MSR      BASEPRI,r0
        0x0800415a:    f3bf8f4f    ..O.    DSB      
        0x0800415e:    f3bf8f6f    ..o.    ISB      
        0x08004162:    e7fe        ..      B        0x8004162 ; xQueueReceive + 94
        0x08004164:    f7fffc60    ..`.    BL       vPortEnterCritical ; 0x8003a28
        0x08004168:    6ba5        .k      LDR      r5,[r4,#0x38]
        0x0800416a:    b1c5        ..      CBZ      r5,0x800419e ; xQueueReceive + 154
        0x0800416c:    4651        QF      MOV      r1,r10
        0x0800416e:    4620         F      MOV      r0,r4
        0x08004170:    f7fff862    ..b.    BL       prvCopyDataFromQueue ; 0x8003238
        0x08004174:    1e6d        m.      SUBS     r5,r5,#1
        0x08004176:    63a5        .c      STR      r5,[r4,#0x38]
        0x08004178:    6920         i      LDR      r0,[r4,#0x10]
        0x0800417a:    b150        P.      CBZ      r0,0x8004192 ; xQueueReceive + 142
        0x0800417c:    f1040010    ....    ADD      r0,r4,#0x10
        0x08004180:    f000f9a6    ....    BL       xTaskRemoveFromEventList ; 0x80044d0
        0x08004184:    b128        (.      CBZ      r0,0x8004192 ; xQueueReceive + 142
        0x08004186:    f8c87000    ...p    STR      r7,[r8,#0]
        0x0800418a:    f3bf8f4f    ..O.    DSB      
        0x0800418e:    f3bf8f6f    ..o.    ISB      
        0x08004192:    f7fffc69    ..i.    BL       vPortExitCritical ; 0x8003a68
        0x08004196:    2001        .       MOVS     r0,#1
        0x08004198:    b006        ..      ADD      sp,sp,#0x18
        0x0800419a:    e8bd87f0    ....    POP      {r4-r10,pc}
        0x0800419e:    9805        ..      LDR      r0,[sp,#0x14]
        0x080041a0:    b108        ..      CBZ      r0,0x80041a6 ; xQueueReceive + 162
        0x080041a2:    b11e        ..      CBZ      r6,0x80041ac ; xQueueReceive + 168
        0x080041a4:    e006        ..      B        0x80041b4 ; xQueueReceive + 176
        0x080041a6:    f7fffc5f    .._.    BL       vPortExitCritical ; 0x8003a68
        0x080041aa:    e027        '.      B        0x80041fc ; xQueueReceive + 248
        0x080041ac:    4668        hF      MOV      r0,sp
        0x080041ae:    f7fffd0f    ....    BL       vTaskInternalSetTimeOutState ; 0x8003bd0
        0x080041b2:    2601        .&      MOVS     r6,#1
        0x080041b4:    f7fffc58    ..X.    BL       vPortExitCritical ; 0x8003a68
        0x080041b8:    f7fffd90    ....    BL       vTaskSuspendAll ; 0x8003cdc
        0x080041bc:    f7fffc34    ..4.    BL       vPortEnterCritical ; 0x8003a28
        0x080041c0:    f9940044    ..D.    LDRSB    r0,[r4,#0x44]
        0x080041c4:    1c40        @.      ADDS     r0,r0,#1
        0x080041c6:    d101        ..      BNE      0x80041cc ; xQueueReceive + 200
        0x080041c8:    f8849044    ..D.    STRB     r9,[r4,#0x44]
        0x080041cc:    f9940045    ..E.    LDRSB    r0,[r4,#0x45]
        0x080041d0:    1c40        @.      ADDS     r0,r0,#1
        0x080041d2:    d101        ..      BNE      0x80041d8 ; xQueueReceive + 212
        0x080041d4:    f8849045    ..E.    STRB     r9,[r4,#0x45]
        0x080041d8:    f7fffc46    ..F.    BL       vPortExitCritical ; 0x8003a68
        0x080041dc:    a905        ..      ADD      r1,sp,#0x14
        0x080041de:    4668        hF      MOV      r0,sp
        0x080041e0:    f000f82c    ..,.    BL       xTaskCheckForTimeOut ; 0x800423c
        0x080041e4:    2800        .(      CMP      r0,#0
        0x080041e6:    4620         F      MOV      r0,r4
        0x080041e8:    d00a        ..      BEQ      0x8004200 ; xQueueReceive + 252
        0x080041ea:    f7fffacf    ....    BL       prvUnlockQueue ; 0x800378c
        0x080041ee:    f000f9a7    ....    BL       xTaskResumeAll ; 0x8004540
        0x080041f2:    4620         F      MOV      r0,r4
        0x080041f4:    f7fff97c    ..|.    BL       prvIsQueueEmpty ; 0x80034f0
        0x080041f8:    2800        .(      CMP      r0,#0
        0x080041fa:    d0b3        ..      BEQ      0x8004164 ; xQueueReceive + 96
        0x080041fc:    2000        .       MOVS     r0,#0
        0x080041fe:    e7cb        ..      B        0x8004198 ; xQueueReceive + 148
        0x08004200:    f7fff976    ..v.    BL       prvIsQueueEmpty ; 0x80034f0
        0x08004204:    b190        ..      CBZ      r0,0x800422c ; xQueueReceive + 296
        0x08004206:    f1040024    ..$.    ADD      r0,r4,#0x24
        0x0800420a:    9905        ..      LDR      r1,[sp,#0x14]
        0x0800420c:    f7fffcee    ....    BL       vTaskPlaceOnEventList ; 0x8003bec
        0x08004210:    4620         F      MOV      r0,r4
        0x08004212:    f7fffabb    ....    BL       prvUnlockQueue ; 0x800378c
        0x08004216:    f000f993    ....    BL       xTaskResumeAll ; 0x8004540
        0x0800421a:    2800        .(      CMP      r0,#0
        0x0800421c:    d1a2        ..      BNE      0x8004164 ; xQueueReceive + 96
        0x0800421e:    f8c87000    ...p    STR      r7,[r8,#0]
        0x08004222:    f3bf8f4f    ..O.    DSB      
        0x08004226:    f3bf8f6f    ..o.    ISB      
        0x0800422a:    e79b        ..      B        0x8004164 ; xQueueReceive + 96
        0x0800422c:    4620         F      MOV      r0,r4
        0x0800422e:    f7fffaad    ....    BL       prvUnlockQueue ; 0x800378c
        0x08004232:    f000f985    ....    BL       xTaskResumeAll ; 0x8004540
        0x08004236:    e795        ..      B        0x8004164 ; xQueueReceive + 96
    $d
        0x08004238:    e000ed04    ....    DCD    3758157060
    $t
    i.xTaskCheckForTimeOut
    xTaskCheckForTimeOut
        0x0800423c:    e92d41f0    -..A    PUSH     {r4-r8,lr}
        0x08004240:    460c        .F      MOV      r4,r1
        0x08004242:    0005        ..      MOVS     r5,r0
        0x08004244:    d011        ..      BEQ      0x800426a ; xTaskCheckForTimeOut + 46
        0x08004246:    b1c4        ..      CBZ      r4,0x800427a ; xTaskCheckForTimeOut + 62
        0x08004248:    f7fffbee    ....    BL       vPortEnterCritical ; 0x8003a28
        0x0800424c:    4b17        .K      LDR      r3,[pc,#92] ; [0x80042ac] = 0x20000014
        0x0800424e:    695a        Zi      LDR      r2,[r3,#0x14]
        0x08004250:    686e        nh      LDR      r6,[r5,#4]
        0x08004252:    6820         h      LDR      r0,[r4,#0]
        0x08004254:    1b91        ..      SUBS     r1,r2,r6
        0x08004256:    1c47        G.      ADDS     r7,r0,#1
        0x08004258:    d017        ..      BEQ      0x800428a ; xTaskCheckForTimeOut + 78
        0x0800425a:    682f        /h      LDR      r7,[r5,#0]
        0x0800425c:    6a9b        .j      LDR      r3,[r3,#0x28]
        0x0800425e:    429f        .B      CMP      r7,r3
        0x08004260:    d019        ..      BEQ      0x8004296 ; xTaskCheckForTimeOut + 90
        0x08004262:    4296        .B      CMP      r6,r2
        0x08004264:    d817        ..      BHI      0x8004296 ; xTaskCheckForTimeOut + 90
        0x08004266:    2401        .$      MOVS     r4,#1
        0x08004268:    e010        ..      B        0x800428c ; xTaskCheckForTimeOut + 80
        0x0800426a:    2050        P       MOVS     r0,#0x50
        0x0800426c:    f3808811    ....    MSR      BASEPRI,r0
        0x08004270:    f3bf8f4f    ..O.    DSB      
        0x08004274:    f3bf8f6f    ..o.    ISB      
        0x08004278:    e7fe        ..      B        0x8004278 ; xTaskCheckForTimeOut + 60
        0x0800427a:    2050        P       MOVS     r0,#0x50
        0x0800427c:    f3808811    ....    MSR      BASEPRI,r0
        0x08004280:    f3bf8f4f    ..O.    DSB      
        0x08004284:    f3bf8f6f    ..o.    ISB      
        0x08004288:    e7fe        ..      B        0x8004288 ; xTaskCheckForTimeOut + 76
        0x0800428a:    2400        .$      MOVS     r4,#0
        0x0800428c:    f7fffbec    ....    BL       vPortExitCritical ; 0x8003a68
        0x08004290:    4620         F      MOV      r0,r4
        0x08004292:    e8bd81f0    ....    POP      {r4-r8,pc}
        0x08004296:    4288        .B      CMP      r0,r1
        0x08004298:    d905        ..      BLS      0x80042a6 ; xTaskCheckForTimeOut + 106
        0x0800429a:    1a40        @.      SUBS     r0,r0,r1
        0x0800429c:    6020         `      STR      r0,[r4,#0]
        0x0800429e:    4628        (F      MOV      r0,r5
        0x080042a0:    f7fffc96    ....    BL       vTaskInternalSetTimeOutState ; 0x8003bd0
        0x080042a4:    e7f1        ..      B        0x800428a ; xTaskCheckForTimeOut + 78
        0x080042a6:    2000        .       MOVS     r0,#0
        0x080042a8:    6020         `      STR      r0,[r4,#0]
        0x080042aa:    e7dc        ..      B        0x8004266 ; xTaskCheckForTimeOut + 42
    $d
        0x080042ac:    20000014    ...     DCD    536870932
    $t
    i.xTaskCreate
    xTaskCreate
        0x080042b0:    e92d5fff    -.._    PUSH     {r0-r12,lr}
        0x080042b4:    4683        .F      MOV      r11,r0
        0x080042b6:    e9dd870e    ....    LDRD     r8,r7,[sp,#0x38]
        0x080042ba:    4699        .F      MOV      r9,r3
        0x080042bc:    4616        .F      MOV      r6,r2
        0x080042be:    468a        .F      MOV      r10,r1
        0x080042c0:    0090        ..      LSLS     r0,r2,#2
        0x080042c2:    f7fffa99    ....    BL       pvPortMalloc ; 0x80037f8
        0x080042c6:    0005        ..      MOVS     r5,r0
        0x080042c8:    d01c        ..      BEQ      0x8004304 ; xTaskCreate + 84
        0x080042ca:    205c        \       MOVS     r0,#0x5c
        0x080042cc:    f7fffa94    ....    BL       pvPortMalloc ; 0x80037f8
        0x080042d0:    0004        ..      MOVS     r4,r0
        0x080042d2:    d014        ..      BEQ      0x80042fe ; xTaskCreate + 78
        0x080042d4:    2000        .       MOVS     r0,#0
        0x080042d6:    6325        %c      STR      r5,[r4,#0x30]
        0x080042d8:    f8840059    ..Y.    STRB     r0,[r4,#0x59]
        0x080042dc:    e9cd4002    ...@    STRD     r4,r0,[sp,#8]
        0x080042e0:    e9cd8700    ....    STRD     r8,r7,[sp,#0]
        0x080042e4:    464b        KF      MOV      r3,r9
        0x080042e6:    4632        2F      MOV      r2,r6
        0x080042e8:    4651        QF      MOV      r1,r10
        0x080042ea:    4658        XF      MOV      r0,r11
        0x080042ec:    f7fff86f    ..o.    BL       prvInitialiseNewTask ; 0x80033ce
        0x080042f0:    4620         F      MOV      r0,r4
        0x080042f2:    f7feff0d    ....    BL       prvAddNewTaskToReadyList ; 0x8003110
        0x080042f6:    2001        .       MOVS     r0,#1
        0x080042f8:    b004        ..      ADD      sp,sp,#0x10
        0x080042fa:    e8bd9ff0    ....    POP      {r4-r12,pc}
        0x080042fe:    4628        (F      MOV      r0,r5
        0x08004300:    f7fffbc6    ....    BL       vPortFree ; 0x8003a90
        0x08004304:    f04f30ff    O..0    MOV      r0,#0xffffffff
        0x08004308:    e7f6        ..      B        0x80042f8 ; xTaskCreate + 72
    i.xTaskCreateStatic
    xTaskCreateStatic
        0x0800430a:    b5f0        ..      PUSH     {r4-r7,lr}
        0x0800430c:    b085        ..      SUB      sp,sp,#0x14
        0x0800430e:    e9dd640b    ...d    LDRD     r6,r4,[sp,#0x2c]
        0x08004312:    9d0a        ..      LDR      r5,[sp,#0x28]
        0x08004314:    b1a6        ..      CBZ      r6,0x8004340 ; xTaskCreateStatic + 54
        0x08004316:    b1dc        ..      CBZ      r4,0x8004350 ; xTaskCreateStatic + 70
        0x08004318:    275c        \'      MOVS     r7,#0x5c
        0x0800431a:    9700        ..      STR      r7,[sp,#0]
        0x0800431c:    6326        &c      STR      r6,[r4,#0x30]
        0x0800431e:    2602        .&      MOVS     r6,#2
        0x08004320:    f8846059    ..Y`    STRB     r6,[r4,#0x59]
        0x08004324:    2600        .&      MOVS     r6,#0
        0x08004326:    af04        ..      ADD      r7,sp,#0x10
        0x08004328:    e9cd4602    ...F    STRD     r4,r6,[sp,#8]
        0x0800432c:    e9cd5700    ...W    STRD     r5,r7,[sp,#0]
        0x08004330:    f7fff84d    ..M.    BL       prvInitialiseNewTask ; 0x80033ce
        0x08004334:    4620         F      MOV      r0,r4
        0x08004336:    f7fefeeb    ....    BL       prvAddNewTaskToReadyList ; 0x8003110
        0x0800433a:    9804        ..      LDR      r0,[sp,#0x10]
        0x0800433c:    b005        ..      ADD      sp,sp,#0x14
        0x0800433e:    bdf0        ..      POP      {r4-r7,pc}
        0x08004340:    2050        P       MOVS     r0,#0x50
        0x08004342:    f3808811    ....    MSR      BASEPRI,r0
        0x08004346:    f3bf8f4f    ..O.    DSB      
        0x0800434a:    f3bf8f6f    ..o.    ISB      
        0x0800434e:    e7fe        ..      B        0x800434e ; xTaskCreateStatic + 68
        0x08004350:    2050        P       MOVS     r0,#0x50
        0x08004352:    f3808811    ....    MSR      BASEPRI,r0
        0x08004356:    f3bf8f4f    ..O.    DSB      
        0x0800435a:    f3bf8f6f    ..o.    ISB      
        0x0800435e:    e7fe        ..      B        0x800435e ; xTaskCreateStatic + 84
    i.xTaskGetSchedulerState
    xTaskGetSchedulerState
        0x08004360:    4805        .H      LDR      r0,[pc,#20] ; [0x8004378] = 0x20000014
        0x08004362:    69c1        .i      LDR      r1,[r0,#0x1c]
        0x08004364:    b119        ..      CBZ      r1,0x800436e ; xTaskGetSchedulerState + 14
        0x08004366:    6b80        .k      LDR      r0,[r0,#0x38]
        0x08004368:    b118        ..      CBZ      r0,0x8004372 ; xTaskGetSchedulerState + 18
        0x0800436a:    2000        .       MOVS     r0,#0
        0x0800436c:    4770        pG      BX       lr
        0x0800436e:    2001        .       MOVS     r0,#1
        0x08004370:    4770        pG      BX       lr
        0x08004372:    2002        .       MOVS     r0,#2
        0x08004374:    4770        pG      BX       lr
    $d
        0x08004376:    0000        ..      DCW    0
        0x08004378:    20000014    ...     DCD    536870932
    $t
    i.xTaskGetTickCount
    xTaskGetTickCount
        0x0800437c:    4801        .H      LDR      r0,[pc,#4] ; [0x8004384] = 0x20000014
        0x0800437e:    6940        @i      LDR      r0,[r0,#0x14]
        0x08004380:    4770        pG      BX       lr
    $d
        0x08004382:    0000        ..      DCW    0
        0x08004384:    20000014    ...     DCD    536870932
    $t
    i.xTaskIncrementTick
    xTaskIncrementTick
        0x08004388:    e92d41f0    -..A    PUSH     {r4-r8,lr}
        0x0800438c:    4c2e        .L      LDR      r4,[pc,#184] ; [0x8004448] = 0x20000014
        0x0800438e:    2700        .'      MOVS     r7,#0
        0x08004390:    6ba0        .k      LDR      r0,[r4,#0x38]
        0x08004392:    b140        @.      CBZ      r0,0x80043a6 ; xTaskIncrementTick + 30
        0x08004394:    6a20         j      LDR      r0,[r4,#0x20]
        0x08004396:    1c40        @.      ADDS     r0,r0,#1
        0x08004398:    6220         b      STR      r0,[r4,#0x20]
        0x0800439a:    6a60        `j      LDR      r0,[r4,#0x24]
        0x0800439c:    b100        ..      CBZ      r0,0x80043a0 ; xTaskIncrementTick + 24
        0x0800439e:    2701        .'      MOVS     r7,#1
        0x080043a0:    4638        8F      MOV      r0,r7
        0x080043a2:    e8bd81f0    ....    POP      {r4-r8,pc}
        0x080043a6:    6966        fi      LDR      r6,[r4,#0x14]
        0x080043a8:    1c76        v.      ADDS     r6,r6,#1
        0x080043aa:    6166        fa      STR      r6,[r4,#0x14]
        0x080043ac:    d113        ..      BNE      0x80043d6 ; xTaskIncrementTick + 78
        0x080043ae:    6860        `h      LDR      r0,[r4,#4]
        0x080043b0:    6800        .h      LDR      r0,[r0,#0]
        0x080043b2:    b138        8.      CBZ      r0,0x80043c4 ; xTaskIncrementTick + 60
        0x080043b4:    2050        P       MOVS     r0,#0x50
        0x080043b6:    f3808811    ....    MSR      BASEPRI,r0
        0x080043ba:    f3bf8f4f    ..O.    DSB      
        0x080043be:    f3bf8f6f    ..o.    ISB      
        0x080043c2:    e7fe        ..      B        0x80043c2 ; xTaskIncrementTick + 58
        0x080043c4:    6860        `h      LDR      r0,[r4,#4]
        0x080043c6:    68a1        .h      LDR      r1,[r4,#8]
        0x080043c8:    6061        a`      STR      r1,[r4,#4]
        0x080043ca:    60a0        .`      STR      r0,[r4,#8]
        0x080043cc:    6aa0        .j      LDR      r0,[r4,#0x28]
        0x080043ce:    1c40        @.      ADDS     r0,r0,#1
        0x080043d0:    62a0        .b      STR      r0,[r4,#0x28]
        0x080043d2:    f7fff95b    ..[.    BL       prvResetNextTaskUnblockTime ; 0x800368c
        0x080043d6:    6b20         k      LDR      r0,[r4,#0x30]
        0x080043d8:    f8df8070    ..p.    LDR      r8,[pc,#112] ; [0x800444c] = 0x2000063c
        0x080043dc:    4286        .B      CMP      r6,r0
        0x080043de:    d309        ..      BCC      0x80043f4 ; xTaskIncrementTick + 108
        0x080043e0:    6860        `h      LDR      r0,[r4,#4]
        0x080043e2:    6800        .h      LDR      r0,[r0,#0]
        0x080043e4:    b180        ..      CBZ      r0,0x8004408 ; xTaskIncrementTick + 128
        0x080043e6:    6860        `h      LDR      r0,[r4,#4]
        0x080043e8:    68c0        .h      LDR      r0,[r0,#0xc]
        0x080043ea:    68c5        .h      LDR      r5,[r0,#0xc]
        0x080043ec:    6868        hh      LDR      r0,[r5,#4]
        0x080043ee:    4286        .B      CMP      r6,r0
        0x080043f0:    d20d        ..      BCS      0x800440e ; xTaskIncrementTick + 134
        0x080043f2:    6320         c      STR      r0,[r4,#0x30]
        0x080043f4:    6820         h      LDR      r0,[r4,#0]
        0x080043f6:    6ac0        .j      LDR      r0,[r0,#0x2c]
        0x080043f8:    eb000180    ....    ADD      r1,r0,r0,LSL #2
        0x080043fc:    f8580021    X.!.    LDR      r0,[r8,r1,LSL #2]
        0x08004400:    2801        .(      CMP      r0,#1
        0x08004402:    d9ca        ..      BLS      0x800439a ; xTaskIncrementTick + 18
        0x08004404:    2701        .'      MOVS     r7,#1
        0x08004406:    e7c8        ..      B        0x800439a ; xTaskIncrementTick + 18
        0x08004408:    f04f30ff    O..0    MOV      r0,#0xffffffff
        0x0800440c:    e7f1        ..      B        0x80043f2 ; xTaskIncrementTick + 106
        0x0800440e:    1d28        (.      ADDS     r0,r5,#4
        0x08004410:    f7fffaae    ....    BL       uxListRemove ; 0x8003970
        0x08004414:    6aa8        .j      LDR      r0,[r5,#0x28]
        0x08004416:    b118        ..      CBZ      r0,0x8004420 ; xTaskIncrementTick + 152
        0x08004418:    f1050018    ....    ADD      r0,r5,#0x18
        0x0800441c:    f7fffaa8    ....    BL       uxListRemove ; 0x8003970
        0x08004420:    6ae8        .j      LDR      r0,[r5,#0x2c]
        0x08004422:    69a1        .i      LDR      r1,[r4,#0x18]
        0x08004424:    4288        .B      CMP      r0,r1
        0x08004426:    d900        ..      BLS      0x800442a ; xTaskIncrementTick + 162
        0x08004428:    61a0        .a      STR      r0,[r4,#0x18]
        0x0800442a:    eb000180    ....    ADD      r1,r0,r0,LSL #2
        0x0800442e:    eb080081    ....    ADD      r0,r8,r1,LSL #2
        0x08004432:    1d29        ).      ADDS     r1,r5,#4
        0x08004434:    f7fffaec    ....    BL       vListInsertEnd ; 0x8003a10
        0x08004438:    6ae8        .j      LDR      r0,[r5,#0x2c]
        0x0800443a:    6821        !h      LDR      r1,[r4,#0]
        0x0800443c:    6ac9        .j      LDR      r1,[r1,#0x2c]
        0x0800443e:    4288        .B      CMP      r0,r1
        0x08004440:    d3ce        ..      BCC      0x80043e0 ; xTaskIncrementTick + 88
        0x08004442:    2701        .'      MOVS     r7,#1
        0x08004444:    e7cc        ..      B        0x80043e0 ; xTaskIncrementTick + 88
    $d
        0x08004446:    0000        ..      DCW    0
        0x08004448:    20000014    ...     DCD    536870932
        0x0800444c:    2000063c    <..     DCD    536872508
    $t
    i.xTaskPriorityDisinherit
    xTaskPriorityDisinherit
        0x08004450:    b570        p.      PUSH     {r4-r6,lr}
        0x08004452:    0004        ..      MOVS     r4,r0
        0x08004454:    f04f0100    O...    MOV      r1,#0
        0x08004458:    d033        3.      BEQ      0x80044c2 ; xTaskPriorityDisinherit + 114
        0x0800445a:    4d1b        .M      LDR      r5,[pc,#108] ; [0x80044c8] = 0x20000014
        0x0800445c:    6828        (h      LDR      r0,[r5,#0]
        0x0800445e:    4284        .B      CMP      r4,r0
        0x08004460:    d007        ..      BEQ      0x8004472 ; xTaskPriorityDisinherit + 34
        0x08004462:    2050        P       MOVS     r0,#0x50
        0x08004464:    f3808811    ....    MSR      BASEPRI,r0
        0x08004468:    f3bf8f4f    ..O.    DSB      
        0x0800446c:    f3bf8f6f    ..o.    ISB      
        0x08004470:    e7fe        ..      B        0x8004470 ; xTaskPriorityDisinherit + 32
        0x08004472:    6d20         m      LDR      r0,[r4,#0x50]
        0x08004474:    b138        8.      CBZ      r0,0x8004486 ; xTaskPriorityDisinherit + 54
        0x08004476:    1e40        @.      SUBS     r0,r0,#1
        0x08004478:    6520         e      STR      r0,[r4,#0x50]
        0x0800447a:    6ce3        .l      LDR      r3,[r4,#0x4c]
        0x0800447c:    6ae2        .j      LDR      r2,[r4,#0x2c]
        0x0800447e:    429a        .B      CMP      r2,r3
        0x08004480:    d01f        ..      BEQ      0x80044c2 ; xTaskPriorityDisinherit + 114
        0x08004482:    b140        @.      CBZ      r0,0x8004496 ; xTaskPriorityDisinherit + 70
        0x08004484:    e01d        ..      B        0x80044c2 ; xTaskPriorityDisinherit + 114
        0x08004486:    2050        P       MOVS     r0,#0x50
        0x08004488:    f3808811    ....    MSR      BASEPRI,r0
        0x0800448c:    f3bf8f4f    ..O.    DSB      
        0x08004490:    f3bf8f6f    ..o.    ISB      
        0x08004494:    e7fe        ..      B        0x8004494 ; xTaskPriorityDisinherit + 68
        0x08004496:    1d20         .      ADDS     r0,r4,#4
        0x08004498:    f7fffa6a    ..j.    BL       uxListRemove ; 0x8003970
        0x0800449c:    6ce0        .l      LDR      r0,[r4,#0x4c]
        0x0800449e:    62e0        .b      STR      r0,[r4,#0x2c]
        0x080044a0:    f1c00038    ..8.    RSB      r0,r0,#0x38
        0x080044a4:    61a0        .a      STR      r0,[r4,#0x18]
        0x080044a6:    6ae0        .j      LDR      r0,[r4,#0x2c]
        0x080044a8:    69a9        .i      LDR      r1,[r5,#0x18]
        0x080044aa:    4288        .B      CMP      r0,r1
        0x080044ac:    d900        ..      BLS      0x80044b0 ; xTaskPriorityDisinherit + 96
        0x080044ae:    61a8        .a      STR      r0,[r5,#0x18]
        0x080044b0:    4906        .I      LDR      r1,[pc,#24] ; [0x80044cc] = 0x2000063c
        0x080044b2:    eb000080    ....    ADD      r0,r0,r0,LSL #2
        0x080044b6:    eb010080    ....    ADD      r0,r1,r0,LSL #2
        0x080044ba:    1d21        !.      ADDS     r1,r4,#4
        0x080044bc:    f7fffaa8    ....    BL       vListInsertEnd ; 0x8003a10
        0x080044c0:    2101        .!      MOVS     r1,#1
        0x080044c2:    4608        .F      MOV      r0,r1
        0x080044c4:    bd70        p.      POP      {r4-r6,pc}
    $d
        0x080044c6:    0000        ..      DCW    0
        0x080044c8:    20000014    ...     DCD    536870932
        0x080044cc:    2000063c    <..     DCD    536872508
    $t
    i.xTaskRemoveFromEventList
    xTaskRemoveFromEventList
        0x080044d0:    b570        p.      PUSH     {r4-r6,lr}
        0x080044d2:    68c0        .h      LDR      r0,[r0,#0xc]
        0x080044d4:    68c4        .h      LDR      r4,[r0,#0xc]
        0x080044d6:    b154        T.      CBZ      r4,0x80044ee ; xTaskRemoveFromEventList + 30
        0x080044d8:    f1040018    ....    ADD      r0,r4,#0x18
        0x080044dc:    4606        .F      MOV      r6,r0
        0x080044de:    f7fffa47    ..G.    BL       uxListRemove ; 0x8003970
        0x080044e2:    4d14        .M      LDR      r5,[pc,#80] ; [0x8004534] = 0x20000014
        0x080044e4:    6ba8        .k      LDR      r0,[r5,#0x38]
        0x080044e6:    b150        P.      CBZ      r0,0x80044fe ; xTaskRemoveFromEventList + 46
        0x080044e8:    4631        1F      MOV      r1,r6
        0x080044ea:    4813        .H      LDR      r0,[pc,#76] ; [0x8004538] = 0x20000ac4
        0x080044ec:    e015        ..      B        0x800451a ; xTaskRemoveFromEventList + 74
        0x080044ee:    2050        P       MOVS     r0,#0x50
        0x080044f0:    f3808811    ....    MSR      BASEPRI,r0
        0x080044f4:    f3bf8f4f    ..O.    DSB      
        0x080044f8:    f3bf8f6f    ..o.    ISB      
        0x080044fc:    e7fe        ..      B        0x80044fc ; xTaskRemoveFromEventList + 44
        0x080044fe:    1d20         .      ADDS     r0,r4,#4
        0x08004500:    f7fffa36    ..6.    BL       uxListRemove ; 0x8003970
        0x08004504:    6ae0        .j      LDR      r0,[r4,#0x2c]
        0x08004506:    69a9        .i      LDR      r1,[r5,#0x18]
        0x08004508:    4288        .B      CMP      r0,r1
        0x0800450a:    d900        ..      BLS      0x800450e ; xTaskRemoveFromEventList + 62
        0x0800450c:    61a8        .a      STR      r0,[r5,#0x18]
        0x0800450e:    490b        .I      LDR      r1,[pc,#44] ; [0x800453c] = 0x2000063c
        0x08004510:    eb000080    ....    ADD      r0,r0,r0,LSL #2
        0x08004514:    eb010080    ....    ADD      r0,r1,r0,LSL #2
        0x08004518:    1d21        !.      ADDS     r1,r4,#4
        0x0800451a:    f7fffa79    ..y.    BL       vListInsertEnd ; 0x8003a10
        0x0800451e:    6ae0        .j      LDR      r0,[r4,#0x2c]
        0x08004520:    6829        )h      LDR      r1,[r5,#0]
        0x08004522:    6ac9        .j      LDR      r1,[r1,#0x2c]
        0x08004524:    4288        .B      CMP      r0,r1
        0x08004526:    d902        ..      BLS      0x800452e ; xTaskRemoveFromEventList + 94
        0x08004528:    2001        .       MOVS     r0,#1
        0x0800452a:    6268        hb      STR      r0,[r5,#0x24]
        0x0800452c:    bd70        p.      POP      {r4-r6,pc}
        0x0800452e:    2000        .       MOVS     r0,#0
        0x08004530:    bd70        p.      POP      {r4-r6,pc}
    $d
        0x08004532:    0000        ..      DCW    0
        0x08004534:    20000014    ...     DCD    536870932
        0x08004538:    20000ac4    ...     DCD    536873668
        0x0800453c:    2000063c    <..     DCD    536872508
    $t
    i.xTaskResumeAll
    xTaskResumeAll
        0x08004540:    e92d47f0    -..G    PUSH     {r4-r10,lr}
        0x08004544:    4d2c        ,M      LDR      r5,[pc,#176] ; [0x80045f8] = 0x20000014
        0x08004546:    2400        .$      MOVS     r4,#0
        0x08004548:    4627        'F      MOV      r7,r4
        0x0800454a:    6ba8        .k      LDR      r0,[r5,#0x38]
        0x0800454c:    b138        8.      CBZ      r0,0x800455e ; xTaskResumeAll + 30
        0x0800454e:    f7fffa6b    ..k.    BL       vPortEnterCritical ; 0x8003a28
        0x08004552:    6ba8        .k      LDR      r0,[r5,#0x38]
        0x08004554:    1e40        @.      SUBS     r0,r0,#1
        0x08004556:    63a8        .c      STR      r0,[r5,#0x38]
        0x08004558:    6ba8        .k      LDR      r0,[r5,#0x38]
        0x0800455a:    b140        @.      CBZ      r0,0x800456e ; xTaskResumeAll + 46
        0x0800455c:    e046        F.      B        0x80045ec ; xTaskResumeAll + 172
        0x0800455e:    2050        P       MOVS     r0,#0x50
        0x08004560:    f3808811    ....    MSR      BASEPRI,r0
        0x08004564:    f3bf8f4f    ..O.    DSB      
        0x08004568:    f3bf8f6f    ..o.    ISB      
        0x0800456c:    e7fe        ..      B        0x800456c ; xTaskResumeAll + 44
        0x0800456e:    6929        )i      LDR      r1,[r5,#0x10]
        0x08004570:    4e22        "N      LDR      r6,[pc,#136] ; [0x80045fc] = 0x20000ac4
        0x08004572:    2001        .       MOVS     r0,#1
        0x08004574:    b3d1        ..      CBZ      r1,0x80045ec ; xTaskResumeAll + 172
        0x08004576:    f5a66991    ...i    SUB      r9,r6,#0x488
        0x0800457a:    4680        .F      MOV      r8,r0
        0x0800457c:    6830        0h      LDR      r0,[r6,#0]
        0x0800457e:    b1e0        ..      CBZ      r0,0x80045ba ; xTaskResumeAll + 122
        0x08004580:    68f0        .h      LDR      r0,[r6,#0xc]
        0x08004582:    68c4        .h      LDR      r4,[r0,#0xc]
        0x08004584:    f1040018    ....    ADD      r0,r4,#0x18
        0x08004588:    f7fff9f2    ....    BL       uxListRemove ; 0x8003970
        0x0800458c:    1d20         .      ADDS     r0,r4,#4
        0x0800458e:    f7fff9ef    ....    BL       uxListRemove ; 0x8003970
        0x08004592:    6ae0        .j      LDR      r0,[r4,#0x2c]
        0x08004594:    69a9        .i      LDR      r1,[r5,#0x18]
        0x08004596:    4288        .B      CMP      r0,r1
        0x08004598:    d900        ..      BLS      0x800459c ; xTaskResumeAll + 92
        0x0800459a:    61a8        .a      STR      r0,[r5,#0x18]
        0x0800459c:    eb000180    ....    ADD      r1,r0,r0,LSL #2
        0x080045a0:    eb090081    ....    ADD      r0,r9,r1,LSL #2
        0x080045a4:    1d21        !.      ADDS     r1,r4,#4
        0x080045a6:    f7fffa33    ..3.    BL       vListInsertEnd ; 0x8003a10
        0x080045aa:    6ae0        .j      LDR      r0,[r4,#0x2c]
        0x080045ac:    6829        )h      LDR      r1,[r5,#0]
        0x080045ae:    6ac9        .j      LDR      r1,[r1,#0x2c]
        0x080045b0:    4288        .B      CMP      r0,r1
        0x080045b2:    d3e3        ..      BCC      0x800457c ; xTaskResumeAll + 60
        0x080045b4:    f8c58024    ..$.    STR      r8,[r5,#0x24]
        0x080045b8:    e7e0        ..      B        0x800457c ; xTaskResumeAll + 60
        0x080045ba:    b10c        ..      CBZ      r4,0x80045c0 ; xTaskResumeAll + 128
        0x080045bc:    f7fff866    ..f.    BL       prvResetNextTaskUnblockTime ; 0x800368c
        0x080045c0:    6a2c        ,j      LDR      r4,[r5,#0x20]
        0x080045c2:    b14c        L.      CBZ      r4,0x80045d8 ; xTaskResumeAll + 152
        0x080045c4:    ea4f0608    O...    MOV.W    r6,r8
        0x080045c8:    f7fffede    ....    BL       xTaskIncrementTick ; 0x8004388
        0x080045cc:    b100        ..      CBZ      r0,0x80045d0 ; xTaskResumeAll + 144
        0x080045ce:    626e        nb      STR      r6,[r5,#0x24]
        0x080045d0:    1e64        d.      SUBS     r4,r4,#1
        0x080045d2:    d1f9        ..      BNE      0x80045c8 ; xTaskResumeAll + 136
        0x080045d4:    2000        .       MOVS     r0,#0
        0x080045d6:    6228        (b      STR      r0,[r5,#0x20]
        0x080045d8:    6a68        hj      LDR      r0,[r5,#0x24]
        0x080045da:    b138        8.      CBZ      r0,0x80045ec ; xTaskResumeAll + 172
        0x080045dc:    4908        .I      LDR      r1,[pc,#32] ; [0x8004600] = 0xe000ed04
        0x080045de:    2701        .'      MOVS     r7,#1
        0x080045e0:    0738        8.      LSLS     r0,r7,#28
        0x080045e2:    6008        .`      STR      r0,[r1,#0]
        0x080045e4:    f3bf8f4f    ..O.    DSB      
        0x080045e8:    f3bf8f6f    ..o.    ISB      
        0x080045ec:    f7fffa3c    ..<.    BL       vPortExitCritical ; 0x8003a68
        0x080045f0:    4638        8F      MOV      r0,r7
        0x080045f2:    e8bd87f0    ....    POP      {r4-r10,pc}
    $d
        0x080045f6:    0000        ..      DCW    0
        0x080045f8:    20000014    ...     DCD    536870932
        0x080045fc:    20000ac4    ...     DCD    536873668
        0x08004600:    e000ed04    ....    DCD    3758157060
    $t
    i.xTimerCreateTimerTask
    xTimerCreateTimerTask
        0x08004604:    b510        ..      PUSH     {r4,lr}
        0x08004606:    b086        ..      SUB      sp,sp,#0x18
        0x08004608:    f7fefdea    ....    BL       prvCheckForValidListAndQueue ; 0x80031e0
        0x0800460c:    4c11        .L      LDR      r4,[pc,#68] ; [0x8004654] = 0x20000050
        0x0800460e:    68a0        .h      LDR      r0,[r4,#8]
        0x08004610:    b1b8        ..      CBZ      r0,0x8004642 ; xTimerCreateTimerTask + 62
        0x08004612:    2000        .       MOVS     r0,#0
        0x08004614:    9003        ..      STR      r0,[sp,#0xc]
        0x08004616:    9004        ..      STR      r0,[sp,#0x10]
        0x08004618:    aa05        ..      ADD      r2,sp,#0x14
        0x0800461a:    a904        ..      ADD      r1,sp,#0x10
        0x0800461c:    a803        ..      ADD      r0,sp,#0xc
        0x0800461e:    f7fff9c5    ....    BL       vApplicationGetTimerTaskMemory ; 0x80039ac
        0x08004622:    e9dd2103    ...!    LDRD     r2,r1,[sp,#0xc]
        0x08004626:    2002        .       MOVS     r0,#2
        0x08004628:    e88d0007    ....    STM      sp,{r0-r2}
        0x0800462c:    2300        .#      MOVS     r3,#0
        0x0800462e:    a10a        ..      ADR      r1,{pc}+0x2a ; 0x8004658
        0x08004630:    480b        .H      LDR      r0,[pc,#44] ; [0x8004660] = 0x8003769
        0x08004632:    9a05        ..      LDR      r2,[sp,#0x14]
        0x08004634:    f7fffe69    ..i.    BL       xTaskCreateStatic ; 0x800430a
        0x08004638:    60e0        .`      STR      r0,[r4,#0xc]
        0x0800463a:    b110        ..      CBZ      r0,0x8004642 ; xTimerCreateTimerTask + 62
        0x0800463c:    b006        ..      ADD      sp,sp,#0x18
        0x0800463e:    2001        .       MOVS     r0,#1
        0x08004640:    bd10        ..      POP      {r4,pc}
        0x08004642:    2050        P       MOVS     r0,#0x50
        0x08004644:    f3808811    ....    MSR      BASEPRI,r0
        0x08004648:    f3bf8f4f    ..O.    DSB      
        0x0800464c:    f3bf8f6f    ..o.    ISB      
        0x08004650:    e7fe        ..      B        0x8004650 ; xTimerCreateTimerTask + 76
    $d
        0x08004652:    0000        ..      DCW    0
        0x08004654:    20000050    P..     DCD    536870992
        0x08004658:    20726d54    Tmr     DCD    544370004
        0x0800465c:    00637653    Svc.    DCD    6518355
        0x08004660:    08003769    i7..    DCD    134231913
    $t
    i.xTimerGenericCommand
    xTimerGenericCommand
        0x08004664:    e92d41ff    -..A    PUSH     {r0-r8,lr}
        0x08004668:    461e        .F      MOV      r6,r3
        0x0800466a:    4613        .F      MOV      r3,r2
        0x0800466c:    0002        ..      MOVS     r2,r0
        0x0800466e:    9d0a        ..      LDR      r5,[sp,#0x28]
        0x08004670:    f04f0000    O...    MOV      r0,#0
        0x08004674:    d016        ..      BEQ      0x80046a4 ; xTimerGenericCommand + 64
        0x08004676:    4c14        .L      LDR      r4,[pc,#80] ; [0x80046c8] = 0x20000050
        0x08004678:    68a7        .h      LDR      r7,[r4,#8]
        0x0800467a:    2f00        ./      CMP      r7,#0
        0x0800467c:    d00f        ..      BEQ      0x800469e ; xTimerGenericCommand + 58
        0x0800467e:    e9cd1300    ....    STRD     r1,r3,[sp,#0]
        0x08004682:    9202        ..      STR      r2,[sp,#8]
        0x08004684:    2906        .)      CMP      r1,#6
        0x08004686:    da17        ..      BGE      0x80046b8 ; xTimerGenericCommand + 84
        0x08004688:    f7fffe6a    ..j.    BL       xTaskGetSchedulerState ; 0x8004360
        0x0800468c:    2802        .(      CMP      r0,#2
        0x0800468e:    f04f0300    O...    MOV      r3,#0
        0x08004692:    d00f        ..      BEQ      0x80046b4 ; xTimerGenericCommand + 80
        0x08004694:    2200        ."      MOVS     r2,#0
        0x08004696:    4669        iF      MOV      r1,sp
        0x08004698:    68a0        .h      LDR      r0,[r4,#8]
        0x0800469a:    f7fffc25    ..%.    BL       xQueueGenericSend ; 0x8003ee8
        0x0800469e:    b004        ..      ADD      sp,sp,#0x10
        0x080046a0:    e8bd81f0    ....    POP      {r4-r8,pc}
        0x080046a4:    2050        P       MOVS     r0,#0x50
        0x080046a6:    f3808811    ....    MSR      BASEPRI,r0
        0x080046aa:    f3bf8f4f    ..O.    DSB      
        0x080046ae:    f3bf8f6f    ..o.    ISB      
        0x080046b2:    e7fe        ..      B        0x80046b2 ; xTimerGenericCommand + 78
        0x080046b4:    462a        *F      MOV      r2,r5
        0x080046b6:    e7ee        ..      B        0x8004696 ; xTimerGenericCommand + 50
        0x080046b8:    2300        .#      MOVS     r3,#0
        0x080046ba:    4632        2F      MOV      r2,r6
        0x080046bc:    4669        iF      MOV      r1,sp
        0x080046be:    4638        8F      MOV      r0,r7
        0x080046c0:    f7fffcc2    ....    BL       xQueueGenericSendFromISR ; 0x8004048
        0x080046c4:    e7eb        ..      B        0x800469e ; xTimerGenericCommand + 58
    $d
        0x080046c6:    0000        ..      DCW    0
        0x080046c8:    20000050    P..     DCD    536870992
    $d.realdata
    .constdata
    defaultTask_attributes
        0x080046cc:    08004f1c    .O..    DCD    134237980
        0x080046d0:    00000000    ....    DCD    0
        0x080046d4:    00000000    ....    DCD    0
        0x080046d8:    00000000    ....    DCD    0
        0x080046dc:    00000000    ....    DCD    0
        0x080046e0:    00000200    ....    DCD    512
        0x080046e4:    00000018    ....    DCD    24
        0x080046e8:    00000000    ....    DCD    0
        0x080046ec:    00000000    ....    DCD    0
    .constdata
    aPredivFactorTable
        0x080046f0:    0201        ..      DCW    513
    aPLLMULFactorTable
        0x080046f2:    0302        ..      DCW    770
        0x080046f4:    07060504    ....    DCD    117835012
        0x080046f8:    0b0a0908    ....    DCD    185207048
        0x080046fc:    0f0e0d0c    ....    DCD    252579084
        0x08004700:    1010        ..      DCW    4112
    .constdata
    AHBPrescTable
        0x08004702:    0000        ..      DCW    0
        0x08004704:    00000000    ....    DCD    0
        0x08004708:    02010000    ....    DCD    33619968
        0x0800470c:    07060403    ....    DCD    117834755
        0x08004710:    0908        ..      DCW    2312
    .constdata
    APBPrescTable
        0x08004712:    0000        ..      DCW    0
        0x08004714:    02010000    ....    DCD    33619968
        0x08004718:    0403        ..      DCW    1027
    .constdata
    ascii_font
        0x0800471a:    0000        ..      DCW    0
        0x0800471c:    00000000    ....    DCD    0
        0x08004720:    00000000    ....    DCD    0
        0x08004724:    00000000    ....    DCD    0
        0x08004728:    fe000000    ....    DCD    4261412864
        0x0800472c:    02020202    ....    DCD    33686018
        0x08004730:    3f000202    ...?    DCD    1056965122
        0x08004734:    20202020            DCD    538976288
        0x08004738:    00002020      ..    DCD    8224
        0x0800473c:    00000000    ....    DCD    0
        0x08004740:    00000000    ....    DCD    0
        0x08004744:    00000000    ....    DCD    0
        0x08004748:    fe000000    ....    DCD    4261412864
        0x0800474c:    02020202    ....    DCD    33686018
        0x08004750:    3f000202    ...?    DCD    1056965122
        0x08004754:    20202020            DCD    538976288
        0x08004758:    fe002020      ..    DCD    4261421088
        0x0800475c:    02020202    ....    DCD    33686018
        0x08004760:    3f000202    ...?    DCD    1056965122
        0x08004764:    20202020            DCD    538976288
        0x08004768:    fe002020      ..    DCD    4261421088
        0x0800476c:    02020202    ....    DCD    33686018
        0x08004770:    3f000202    ...?    DCD    1056965122
        0x08004774:    20202020            DCD    538976288
        0x08004778:    fe002020      ..    DCD    4261421088
        0x0800477c:    02020202    ....    DCD    33686018
        0x08004780:    3f000202    ...?    DCD    1056965122
        0x08004784:    20202020            DCD    538976288
        0x08004788:    fe002020      ..    DCD    4261421088
        0x0800478c:    02020202    ....    DCD    33686018
        0x08004790:    3f000202    ...?    DCD    1056965122
        0x08004794:    20202020            DCD    538976288
        0x08004798:    fe002020      ..    DCD    4261421088
        0x0800479c:    02020202    ....    DCD    33686018
        0x080047a0:    3f000202    ...?    DCD    1056965122
        0x080047a4:    20202020            DCD    538976288
        0x080047a8:    00002020      ..    DCD    8224
        0x080047ac:    00000000    ....    DCD    0
        0x080047b0:    00000000    ....    DCD    0
        0x080047b4:    00000000    ....    DCD    0
        0x080047b8:    00000000    ....    DCD    0
        0x080047bc:    00000000    ....    DCD    0
        0x080047c0:    00000000    ....    DCD    0
        0x080047c4:    00000000    ....    DCD    0
        0x080047c8:    00000000    ....    DCD    0
        0x080047cc:    00000000    ....    DCD    0
        0x080047d0:    00000000    ....    DCD    0
        0x080047d4:    00000000    ....    DCD    0
        0x080047d8:    fe000000    ....    DCD    4261412864
        0x080047dc:    02020202    ....    DCD    33686018
        0x080047e0:    3f000202    ...?    DCD    1056965122
        0x080047e4:    20202020            DCD    538976288
        0x080047e8:    fe002020      ..    DCD    4261421088
        0x080047ec:    02020202    ....    DCD    33686018
        0x080047f0:    3f000202    ...?    DCD    1056965122
        0x080047f4:    20202020            DCD    538976288
        0x080047f8:    fe002020      ..    DCD    4261421088
        0x080047fc:    02020202    ....    DCD    33686018
        0x08004800:    3f000202    ...?    DCD    1056965122
        0x08004804:    20202020            DCD    538976288
        0x08004808:    fe002020      ..    DCD    4261421088
        0x0800480c:    02020202    ....    DCD    33686018
        0x08004810:    3f000202    ...?    DCD    1056965122
        0x08004814:    20202020            DCD    538976288
        0x08004818:    fe002020      ..    DCD    4261421088
        0x0800481c:    02020202    ....    DCD    33686018
        0x08004820:    3f000202    ...?    DCD    1056965122
        0x08004824:    20202020            DCD    538976288
        0x08004828:    fe002020      ..    DCD    4261421088
        0x0800482c:    02020202    ....    DCD    33686018
        0x08004830:    3f000202    ...?    DCD    1056965122
        0x08004834:    20202020            DCD    538976288
        0x08004838:    fe002020      ..    DCD    4261421088
        0x0800483c:    02020202    ....    DCD    33686018
        0x08004840:    3f000202    ...?    DCD    1056965122
        0x08004844:    20202020            DCD    538976288
        0x08004848:    fe002020      ..    DCD    4261421088
        0x0800484c:    02020202    ....    DCD    33686018
        0x08004850:    3f000202    ...?    DCD    1056965122
        0x08004854:    20202020            DCD    538976288
        0x08004858:    fe002020      ..    DCD    4261421088
        0x0800485c:    02020202    ....    DCD    33686018
        0x08004860:    3f000202    ...?    DCD    1056965122
        0x08004864:    20202020            DCD    538976288
        0x08004868:    fe002020      ..    DCD    4261421088
        0x0800486c:    02020202    ....    DCD    33686018
        0x08004870:    3f000202    ...?    DCD    1056965122
        0x08004874:    20202020            DCD    538976288
        0x08004878:    fe002020      ..    DCD    4261421088
        0x0800487c:    02020202    ....    DCD    33686018
        0x08004880:    3f000202    ...?    DCD    1056965122
        0x08004884:    20202020            DCD    538976288
        0x08004888:    fe002020      ..    DCD    4261421088
        0x0800488c:    02020202    ....    DCD    33686018
        0x08004890:    3f000202    ...?    DCD    1056965122
        0x08004894:    20202020            DCD    538976288
        0x08004898:    fe002020      ..    DCD    4261421088
        0x0800489c:    02020202    ....    DCD    33686018
        0x080048a0:    3f000202    ...?    DCD    1056965122
        0x080048a4:    20202020            DCD    538976288
        0x080048a8:    fe002020      ..    DCD    4261421088
        0x080048ac:    02020202    ....    DCD    33686018
        0x080048b0:    3f000202    ...?    DCD    1056965122
        0x080048b4:    20202020            DCD    538976288
        0x080048b8:    fe002020      ..    DCD    4261421088
        0x080048bc:    02020202    ....    DCD    33686018
        0x080048c0:    3f000202    ...?    DCD    1056965122
        0x080048c4:    20202020            DCD    538976288
        0x080048c8:    fe002020      ..    DCD    4261421088
        0x080048cc:    02020202    ....    DCD    33686018
        0x080048d0:    3f000202    ...?    DCD    1056965122
        0x080048d4:    20202020            DCD    538976288
        0x080048d8:    00002020      ..    DCD    8224
        0x080048dc:    00000000    ....    DCD    0
        0x080048e0:    00000000    ....    DCD    0
        0x080048e4:    00000000    ....    DCD    0
        0x080048e8:    00000000    ....    DCD    0
        0x080048ec:    00000000    ....    DCD    0
        0x080048f0:    00000000    ....    DCD    0
        0x080048f4:    00000000    ....    DCD    0
        0x080048f8:    00000000    ....    DCD    0
        0x080048fc:    00000000    ....    DCD    0
        0x08004900:    00000000    ....    DCD    0
        0x08004904:    00000000    ....    DCD    0
        0x08004908:    00000000    ....    DCD    0
        0x0800490c:    00000000    ....    DCD    0
        0x08004910:    00000000    ....    DCD    0
        0x08004914:    00000000    ....    DCD    0
        0x08004918:    00000000    ....    DCD    0
        0x0800491c:    00000000    ....    DCD    0
        0x08004920:    00000000    ....    DCD    0
        0x08004924:    00000000    ....    DCD    0
        0x08004928:    00000000    ....    DCD    0
        0x0800492c:    0000f800    ....    DCD    63488
        0x08004930:    00000000    ....    DCD    0
        0x08004934:    00003300    .3..    DCD    13056
        0x08004938:    10000000    ....    DCD    268435456
        0x0800493c:    0c10020c    ....    DCD    202375692
        0x08004940:    00000002    ....    DCD    2
        0x08004944:    00000000    ....    DCD    0
        0x08004948:    40000000    ...@    DCD    1073741824
        0x0800494c:    c04078c0    .x@.    DCD    3225450688
        0x08004950:    04000078    x...    DCD    67108984
        0x08004954:    3f04043f    ?..?    DCD    1057227839
        0x08004958:    70000004    ...p    DCD    1879048196
        0x0800495c:    08fc8888    ....    DCD    150767752
        0x08004960:    18000030    0...    DCD    402653232
        0x08004964:    21ff2020      .!    DCD    570368032
        0x08004968:    08f0001e    ....    DCD    149946398
        0x0800496c:    186080f0    ..`.    DCD    408977648
        0x08004970:    31000000    ...1    DCD    822083584
        0x08004974:    211e030c    ...!    DCD    555614988
        0x08004978:    f000001e    ....    DCD    4026531870
        0x0800497c:    00708808    ..p.    DCD    7374856
        0x08004980:    211e0000    ...!    DCD    555614208
        0x08004984:    27192c23    #,.'    DCD    655961123
        0x08004988:    12001021    !...    DCD    301994017
        0x0800498c:    0000000e    ....    DCD    14
        0x08004990:    00000000    ....    DCD    0
        0x08004994:    00000000    ....    DCD    0
        0x08004998:    00000000    ....    DCD    0
        0x0800499c:    0418e000    ....    DCD    68739072
        0x080049a0:    00000002    ....    DCD    2
        0x080049a4:    20180700    ...     DCD    538445568
        0x080049a8:    02000040    @...    DCD    33554496
        0x080049ac:    00e01804    ....    DCD    14686212
        0x080049b0:    40000000    ...@    DCD    1073741824
        0x080049b4:    00071820     ...    DCD    464928
        0x080049b8:    40400000    ..@@    DCD    1077936128
        0x080049bc:    4080f080    ...@    DCD    1082192000
        0x080049c0:    02020040    @...    DCD    33685568
        0x080049c4:    02010f01    ....    DCD    33623809
        0x080049c8:    00000002    ....    DCD    2
        0x080049cc:    00e00000    ....    DCD    14680064
        0x080049d0:    01000000    ....    DCD    16777216
        0x080049d4:    010f0101    ....    DCD    17760513
        0x080049d8:    00000101    ....    DCD    257
        0x080049dc:    00000000    ....    DCD    0
        0x080049e0:    90000000    ....    DCD    2415919104
        0x080049e4:    00000070    p...    DCD    112
        0x080049e8:    00000000    ....    DCD    0
        0x080049ec:    00000000    ....    DCD    0
        0x080049f0:    01000000    ....    DCD    16777216
        0x080049f4:    01010101    ....    DCD    16843009
        0x080049f8:    00000001    ....    DCD    1
        0x080049fc:    00000000    ....    DCD    0
        0x08004a00:    30000000    ...0    DCD    805306368
        0x08004a04:    00000030    0...    DCD    48
        0x08004a08:    00000000    ....    DCD    0
        0x08004a0c:    38c00000    ...8    DCD    952107008
        0x08004a10:    60000004    ...`    DCD    1610612740
        0x08004a14:    00000718    ....    DCD    1816
        0x08004a18:    e0000000    ....    DCD    3758096384
        0x08004a1c:    10080810    ....    DCD    268961808
        0x08004a20:    0f0000e0    ....    DCD    251658464
        0x08004a24:    10202010    .  .    DCD    270540816
        0x08004a28:    0000000f    ....    DCD    15
        0x08004a2c:    00f81010    ....    DCD    16257040
        0x08004a30:    00000000    ....    DCD    0
        0x08004a34:    203f2020      ?     DCD    541007904
        0x08004a38:    70000020     ..p    DCD    1879048224
        0x08004a3c:    08080808    ....    DCD    134744072
        0x08004a40:    300000f0    ...0    DCD    805306608
        0x08004a44:    21222428    ($"!    DCD    555885608
        0x08004a48:    30000030    0..0    DCD    805306416
        0x08004a4c:    88080808    ....    DCD    2282227720
        0x08004a50:    18000070    p...    DCD    402653296
        0x08004a54:    22212120     !!"    DCD    572596512
        0x08004a58:    0000001c    ....    DCD    28
        0x08004a5c:    f8304080    .@0.    DCD    4163911808
        0x08004a60:    06000000    ....    DCD    100663296
        0x08004a64:    3f242405    .$$?    DCD    1059333125
        0x08004a68:    f8002424    $$..    DCD    4160758820
        0x08004a6c:    08888888    ....    DCD    143165576
        0x08004a70:    19000008    ....    DCD    419430408
        0x08004a74:    11202020       .    DCD    287318048
        0x08004a78:    e000000e    ....    DCD    3758096398
        0x08004a7c:    90888810    ....    DCD    2424866832
        0x08004a80:    0f000000    ....    DCD    251658240
        0x08004a84:    20202011    .       DCD    538976273
        0x08004a88:    1800001f    ....    DCD    402653215
        0x08004a8c:    68880808    ...h    DCD    1753745416
        0x08004a90:    00000018    ....    DCD    24
        0x08004a94:    00013e00    .>..    DCD    81408
        0x08004a98:    70000000    ...p    DCD    1879048192
        0x08004a9c:    88080888    ....    DCD    2282227848
        0x08004aa0:    1c000070    p...    DCD    469762160
        0x08004aa4:    22212122    "!!"    DCD    572596514
        0x08004aa8:    f000001c    ....    DCD    4026531868
        0x08004aac:    10080808    ....    DCD    268961800
        0x08004ab0:    010000e0    ....    DCD    16777440
        0x08004ab4:    11222212    ."".    DCD    287449618
        0x08004ab8:    0000000f    ....    DCD    15
        0x08004abc:    00c0c000    ....    DCD    12632064
        0x08004ac0:    00000000    ....    DCD    0
        0x08004ac4:    00303000    .00.    DCD    3158016
        0x08004ac8:    00000000    ....    DCD    0
        0x08004acc:    00008000    ....    DCD    32768
        0x08004ad0:    00000000    ....    DCD    0
        0x08004ad4:    0000e000    ....    DCD    57344
        0x08004ad8:    00000000    ....    DCD    0
        0x08004adc:    10204080    .@ .    DCD    270549120
        0x08004ae0:    01000008    ....    DCD    16777224
        0x08004ae4:    10080402    ....    DCD    268960770
        0x08004ae8:    40000020     ..@    DCD    1073741856
        0x08004aec:    40404040    @@@@    DCD    1077952576
        0x08004af0:    02000040    @...    DCD    33554496
        0x08004af4:    02020202    ....    DCD    33686018
        0x08004af8:    08000002    ....    DCD    134217730
        0x08004afc:    80402010    . @.    DCD    2151686160
        0x08004b00:    20000000    ...     DCD    536870912
        0x08004b04:    02040810    ....    DCD    33818640
        0x08004b08:    70000001    ...p    DCD    1879048193
        0x08004b0c:    88080848    H...    DCD    2282227784
        0x08004b10:    00000070    p...    DCD    112
        0x08004b14:    00373000    .07.    DCD    3616768
        0x08004b18:    30c00000    ...0    DCD    817889280
        0x08004b1c:    10e828c8    .(..    DCD    283650248
        0x08004b20:    180700e0    ....    DCD    403112160
        0x08004b24:    282f2827    '(/(    DCD    674179111
        0x08004b28:    00000017    ....    DCD    23
        0x08004b2c:    00e038c0    .8..    DCD    14694592
        0x08004b30:    3c200000    .. <    DCD    1008730112
        0x08004b34:    27020223    #..'    DCD    654443043
        0x08004b38:    f8082038    8 ..    DCD    4161282104
        0x08004b3c:    70888888    ...p    DCD    1887996040
        0x08004b40:    3f200000    .. ?    DCD    1059061760
        0x08004b44:    11202020       .    DCD    287318048
        0x08004b48:    30c0000e    ...0    DCD    817889294
        0x08004b4c:    08080808    ....    DCD    134744072
        0x08004b50:    18070038    8...    DCD    403111992
        0x08004b54:    10202020       .    DCD    270540832
        0x08004b58:    f8080008    ....    DCD    4161273864
        0x08004b5c:    10080808    ....    DCD    268961800
        0x08004b60:    3f2000e0    .. ?    DCD    1059061984
        0x08004b64:    10202020       .    DCD    270540832
        0x08004b68:    f808000f    ....    DCD    4161273871
        0x08004b6c:    08e88888    ....    DCD    149457032
        0x08004b70:    3f200010    .. ?    DCD    1059061776
        0x08004b74:    20232020      #     DCD    539172896
        0x08004b78:    f8080018    ....    DCD    4161273880
        0x08004b7c:    08e88888    ....    DCD    149457032
        0x08004b80:    3f200010    .. ?    DCD    1059061776
        0x08004b84:    00030020     ...    DCD    196640
        0x08004b88:    30c00000    ...0    DCD    817889280
        0x08004b8c:    38080808    ...8    DCD    940050440
        0x08004b90:    18070000    ....    DCD    403111936
        0x08004b94:    1e222020      ".    DCD    505552928
        0x08004b98:    f8080002    ....    DCD    4161273858
        0x08004b9c:    08000008    ....    DCD    134217736
        0x08004ba0:    3f2008f8    .. ?    DCD    1059064056
        0x08004ba4:    21010121    !..!    DCD    553713953
        0x08004ba8:    0800203f    ? ..    DCD    134225983
        0x08004bac:    0808f808    ....    DCD    134805512
        0x08004bb0:    20000000    ...     DCD    536870912
        0x08004bb4:    20203f20     ?      DCD    538984224
        0x08004bb8:    00000000    ....    DCD    0
        0x08004bbc:    08f80808    ....    DCD    150472712
        0x08004bc0:    80c00008    ....    DCD    2160066568
        0x08004bc4:    007f8080    ....    DCD    8355968
        0x08004bc8:    f8080000    ....    DCD    4161273856
        0x08004bcc:    1828c088    ..(.    DCD    405323912
        0x08004bd0:    3f200008    .. ?    DCD    1059061768
        0x08004bd4:    38260120     .&8    DCD    942014752
        0x08004bd8:    f8080020     ...    DCD    4161273888
        0x08004bdc:    00000008    ....    DCD    8
        0x08004be0:    3f200000    .. ?    DCD    1059061760
        0x08004be4:    20202020            DCD    538976288
        0x08004be8:    f8080030    0...    DCD    4161273904
        0x08004bec:    f8f800f8    ....    DCD    4177002744
        0x08004bf0:    3f200008    .. ?    DCD    1059061768
        0x08004bf4:    3f013e01    .>.?    DCD    1057046017
        0x08004bf8:    f8080020     ...    DCD    4161273888
        0x08004bfc:    0800c030    0...    DCD    134266928
        0x08004c00:    3f2008f8    .. ?    DCD    1059064056
        0x08004c04:    18070020     ...    DCD    403111968
        0x08004c08:    10e0003f    ?...    DCD    283115583
        0x08004c0c:    10080808    ....    DCD    268961800
        0x08004c10:    100f00e0    ....    DCD    269418720
        0x08004c14:    10202020       .    DCD    270540832
        0x08004c18:    f808000f    ....    DCD    4161273871
        0x08004c1c:    08080808    ....    DCD    134744072
        0x08004c20:    3f2000f0    .. ?    DCD    1059062000
        0x08004c24:    01010121    !...    DCD    16843041
        0x08004c28:    10e00000    ....    DCD    283115520
        0x08004c2c:    10080808    ....    DCD    268961800
        0x08004c30:    100f00e0    ....    DCD    269418720
        0x08004c34:    50302828    ((0P    DCD    1345333288
        0x08004c38:    f808004f    O...    DCD    4161273935
        0x08004c3c:    88888888    ....    DCD    2290649224
        0x08004c40:    3f200070    p. ?    DCD    1059061872
        0x08004c44:    0c030020     ...    DCD    201523232
        0x08004c48:    70002030    0 .p    DCD    1879056432
        0x08004c4c:    08080888    ....    DCD    134744200
        0x08004c50:    38000038    8..8    DCD    939524152
        0x08004c54:    22212120     !!"    DCD    572596512
        0x08004c58:    0818001c    ....    DCD    135790620
        0x08004c5c:    0808f808    ....    DCD    134805512
        0x08004c60:    00000018    ....    DCD    24
        0x08004c64:    00203f20     ? .    DCD    2113312
        0x08004c68:    f8080000    ....    DCD    4161273856
        0x08004c6c:    08000008    ....    DCD    134217736
        0x08004c70:    1f0008f8    ....    DCD    520095992
        0x08004c74:    20202020            DCD    538976288
        0x08004c78:    7808001f    ...x    DCD    2013790239
        0x08004c7c:    c8000088    ....    DCD    3355443336
        0x08004c80:    00000838    8...    DCD    2104
        0x08004c84:    010e3807    .8..    DCD    17709063
        0x08004c88:    f8080000    ....    DCD    4161273856
        0x08004c8c:    f800f800    ....    DCD    4160813056
        0x08004c90:    03000008    ....    DCD    50331656
        0x08004c94:    033e013e    >.>.    DCD    54395198
        0x08004c98:    18080000    ....    DCD    403177472
        0x08004c9c:    68808068    h..h    DCD    1753251944
        0x08004ca0:    30200818    .. 0    DCD    807405592
        0x08004ca4:    2c03032c    ,..,    DCD    738394924
        0x08004ca8:    38082030    0 .8    DCD    940056624
        0x08004cac:    38c800c8    ...8    DCD    952631496
        0x08004cb0:    00000008    ....    DCD    8
        0x08004cb4:    00203f20     ? .    DCD    2113312
        0x08004cb8:    08100000    ....    DCD    135266304
        0x08004cbc:    38c80808    ...8    DCD    952633352
        0x08004cc0:    38200008    .. 8    DCD    941621256
        0x08004cc4:    20202126    &!      DCD    538976550
        0x08004cc8:    00000018    ....    DCD    24
        0x08004ccc:    0202fe00    ....    DCD    33750528
        0x08004cd0:    00000002    ....    DCD    2
        0x08004cd4:    40407f00    ..@@    DCD    1077968640
        0x08004cd8:    04000040    @...    DCD    67108928
        0x08004cdc:    0000c038    8...    DCD    49208
        0x08004ce0:    00000000    ....    DCD    0
        0x08004ce4:    38060100    ...8    DCD    939917568
        0x08004ce8:    020000c0    ....    DCD    33554624
        0x08004cec:    00fe0202    ....    DCD    16646658
        0x08004cf0:    40000000    ...@    DCD    1073741824
        0x08004cf4:    007f4040    @@..    DCD    8339520
        0x08004cf8:    00000000    ....    DCD    0
        0x08004cfc:    04020204    ....    DCD    67240452
        0x08004d00:    00000000    ....    DCD    0
        0x08004d04:    00000000    ....    DCD    0
        0x08004d08:    00000000    ....    DCD    0
        0x08004d0c:    00000000    ....    DCD    0
        0x08004d10:    80800000    ....    DCD    2155872256
        0x08004d14:    80808080    ....    DCD    2155905152
        0x08004d18:    02008080    ....    DCD    33587328
        0x08004d1c:    00000402    ....    DCD    1026
        0x08004d20:    00000000    ....    DCD    0
        0x08004d24:    00000000    ....    DCD    0
        0x08004d28:    00000000    ....    DCD    0
        0x08004d2c:    00808080    ....    DCD    8421504
        0x08004d30:    19000000    ....    DCD    419430400
        0x08004d34:    3f122424    $$.?    DCD    1058153508
        0x08004d38:    f0100020     ...    DCD    4027580448
        0x08004d3c:    00808000    ....    DCD    8421376
        0x08004d40:    3f000000    ...?    DCD    1056964608
        0x08004d44:    11202011    .  .    DCD    287318033
        0x08004d48:    0000000e    ....    DCD    14
        0x08004d4c:    80808000    ....    DCD    2155905024
        0x08004d50:    0e000000    ....    DCD    234881024
        0x08004d54:    20202011    .       DCD    538976273
        0x08004d58:    00000011    ....    DCD    17
        0x08004d5c:    90808080    ....    DCD    2424340608
        0x08004d60:    1f0000f0    ....    DCD    520093936
        0x08004d64:    10202020       .    DCD    270540832
        0x08004d68:    0000203f    ? ..    DCD    8255
        0x08004d6c:    80808080    ....    DCD    2155905152
        0x08004d70:    1f000000    ....    DCD    520093696
        0x08004d74:    24242424    $$$$    DCD    606348324
        0x08004d78:    80000017    ....    DCD    2147483671
        0x08004d7c:    9090e080    ....    DCD    2425413760
        0x08004d80:    20000020     ..     DCD    536870944
        0x08004d84:    20203f20     ?      DCD    538984224
        0x08004d88:    00000000    ....    DCD    0
        0x08004d8c:    80808080    ....    DCD    2155905152
        0x08004d90:    6b000080    ...k    DCD    1795162240
        0x08004d94:    93949494    ....    DCD    2475988116
        0x08004d98:    f0100060    `...    DCD    4027580512
        0x08004d9c:    80808000    ....    DCD    2155905024
        0x08004da0:    3f200000    .. ?    DCD    1059061760
        0x08004da4:    20000021    !..     DCD    536870945
        0x08004da8:    8000203f    ? ..    DCD    2147491903
        0x08004dac:    00009898    ....    DCD    39064
        0x08004db0:    20000000    ...     DCD    536870912
        0x08004db4:    20203f20     ?      DCD    538984224
        0x08004db8:    00000000    ....    DCD    0
        0x08004dbc:    98988000    ....    DCD    2560131072
        0x08004dc0:    c0000000    ....    DCD    3221225472
        0x08004dc4:    7f808080    ....    DCD    2139127936
        0x08004dc8:    f0100000    ....    DCD    4027580416
        0x08004dcc:    80800000    ....    DCD    2155872256
        0x08004dd0:    3f200080    .. ?    DCD    1059061888
        0x08004dd4:    30290624    $.)0    DCD    807994916
        0x08004dd8:    10000020     ...    DCD    268435488
        0x08004ddc:    0000f810    ....    DCD    63504
        0x08004de0:    20000000    ...     DCD    536870912
        0x08004de4:    20203f20     ?      DCD    538984224
        0x08004de8:    80800000    ....    DCD    2155872256
        0x08004dec:    80808080    ....    DCD    2155905152
        0x08004df0:    3f200080    .. ?    DCD    1059061888
        0x08004df4:    203f0020     .?     DCD    540999712
        0x08004df8:    80803f00    .?..    DCD    2155888384
        0x08004dfc:    80808000    ....    DCD    2155905024
        0x08004e00:    3f200000    .. ?    DCD    1059061760
        0x08004e04:    20000021    !..     DCD    536870945
        0x08004e08:    0000203f    ? ..    DCD    8255
        0x08004e0c:    80808080    ....    DCD    2155905152
        0x08004e10:    1f000000    ....    DCD    520093696
        0x08004e14:    20202020            DCD    538976288
        0x08004e18:    8080001f    ....    DCD    2155872287
        0x08004e1c:    00808000    ....    DCD    8421376
        0x08004e20:    ff800000    ....    DCD    4286578688
        0x08004e24:    11202091    .  .    DCD    287318161
        0x08004e28:    0000000e    ....    DCD    14
        0x08004e2c:    00808000    ....    DCD    8421376
        0x08004e30:    0e000080    ....    DCD    234881152
        0x08004e34:    91202011    .  .    DCD    2434801681
        0x08004e38:    808080ff    ....    DCD    2155905279
        0x08004e3c:    80800080    ....    DCD    2155872384
        0x08004e40:    20200080    ..      DCD    538968192
        0x08004e44:    0020213f    ?! .    DCD    2105663
        0x08004e48:    00000001    ....    DCD    1
        0x08004e4c:    80808080    ....    DCD    2155905152
        0x08004e50:    33000080    ...3    DCD    855638144
        0x08004e54:    24242424    $$$$    DCD    606348324
        0x08004e58:    80000019    ....    DCD    2147483673
        0x08004e5c:    8080e080    ....    DCD    2155929728
        0x08004e60:    00000000    ....    DCD    0
        0x08004e64:    20201f00    ..      DCD    538976000
        0x08004e68:    80800010    ....    DCD    2155872272
        0x08004e6c:    80000000    ....    DCD    2147483648
        0x08004e70:    1f000080    ....    DCD    520093824
        0x08004e74:    10202020       .    DCD    270540832
        0x08004e78:    8080203f    ? ..    DCD    2155880511
        0x08004e7c:    80800080    ....    DCD    2155872384
        0x08004e80:    03000080    ....    DCD    50331776
        0x08004e84:    030c300c    .0..    DCD    51130380
        0x08004e88:    80800000    ....    DCD    2155872256
        0x08004e8c:    00808000    ....    DCD    8421376
        0x08004e90:    0e018080    ....    DCD    234979456
        0x08004e94:    38070c30    0..8    DCD    939985968
        0x08004e98:    80000106    ....    DCD    2147483910
        0x08004e9c:    80008080    ....    DCD    2147516544
        0x08004ea0:    20000080    ...     DCD    536871040
        0x08004ea4:    312e0e31    1..1    DCD    825101873
        0x08004ea8:    80800020     ...    DCD    2155872288
        0x08004eac:    80000080    ....    DCD    2147483776
        0x08004eb0:    81008080    ....    DCD    2164293760
        0x08004eb4:    06187886    .x..    DCD    102267014
        0x08004eb8:    80000001    ....    DCD    2147483649
        0x08004ebc:    80808080    ....    DCD    2155905152
        0x08004ec0:    21000080    ...!    DCD    553648256
        0x08004ec4:    21222c30    0,"!    DCD    555887664
        0x08004ec8:    00000030    0...    DCD    48
        0x08004ecc:    fc000000    ....    DCD    4227858432
        0x08004ed0:    00000202    ....    DCD    514
        0x08004ed4:    3e010000    ...>    DCD    1040252928
        0x08004ed8:    00004040    @@..    DCD    16448
        0x08004edc:    00ff0000    ....    DCD    16711680
        0x08004ee0:    00000000    ....    DCD    0
        0x08004ee4:    00ff0000    ....    DCD    16711680
        0x08004ee8:    02020000    ....    DCD    33685504
        0x08004eec:    000000fc    ....    DCD    252
        0x08004ef0:    40400000    ..@@    DCD    1077936128
        0x08004ef4:    0000013e    >...    DCD    318
        0x08004ef8:    02000000    ....    DCD    33554432
        0x08004efc:    04020201    ....    DCD    67240449
        0x08004f00:    00000002    ....    DCD    2
        0x08004f04:    00000000    ....    DCD    0
        0x08004f08:    00000000    ....    DCD    0
        0x08004f0c:    00000000    ....    DCD    0
        0x08004f10:    00000000    ....    DCD    0
        0x08004f14:    00000000    ....    DCD    0
        0x08004f18:    00000000    ....    DCD    0
    .conststring
        0x08004f1c:    61666564    defa    DCD    1634100580
        0x08004f20:    54746c75    ultT    DCD    1416916085
        0x08004f24:    006b7361    ask.    DCD    7041889
    Region$$Table$$Base
        0x08004f28:    08004f48    HO..    DCD    134238024
        0x08004f2c:    20000000    ...     DCD    536870912
        0x08004f30:    000000c8    ....    DCD    200
        0x08004f34:    08002f16    ./..    DCD    134229782
        0x08004f38:    08005010    .P..    DCD    134238224
        0x08004f3c:    200000c8    ...     DCD    536871112
        0x08004f40:    000024a8    .$..    DCD    9384
        0x08004f44:    08002f26    &/..    DCD    134229798
    Region$$Table$$Limit

** Section #2 'RW_IRAM1' (SHT_PROGBITS) [SHF_ALLOC + SHF_WRITE]
    Size   : 200 bytes (alignment 8)
    Address: 0x20000000


** Section #3 'RW_IRAM1' (SHT_NOBITS) [SHF_ALLOC + SHF_WRITE]
    Size   : 9384 bytes (alignment 8)
    Address: 0x200000c8


** Section #4 '.debug_abbrev' (SHT_PROGBITS)
    Size   : 1476 bytes


** Section #5 '.debug_frame' (SHT_PROGBITS)
    Size   : 6004 bytes


** Section #6 '.debug_info' (SHT_PROGBITS)
    Size   : 133456 bytes


** Section #7 '.debug_line' (SHT_PROGBITS)
    Size   : 48580 bytes


** Section #8 '.debug_loc' (SHT_PROGBITS)
    Size   : 17260 bytes


** Section #9 '.debug_macinfo' (SHT_PROGBITS)
    Size   : 523072 bytes


** Section #10 '.debug_pubnames' (SHT_PROGBITS)
    Size   : 6805 bytes


** Section #11 '.symtab' (SHT_SYMTAB)
    Size   : 16688 bytes (alignment 4)
    String table #12 '.strtab'
    Last local symbol no. 751


** Section #12 '.strtab' (SHT_STRTAB)
    Size   : 17244 bytes


** Section #13 '.note' (SHT_NOTE)
    Size   : 28 bytes (alignment 4)


** Section #14 '.comment' (SHT_PROGBITS)
    Size   : 94564 bytes


** Section #15 '.shstrtab' (SHT_STRTAB)
    Size   : 156 bytes


address     size       variable name                            type
0x200000b0  0x4        g_count                                  int32_t

address     size       variable name                            type
0x200000b4  0x4        g_speed                                  int32_t

address     size       variable name                            type
0x20000098  0x4        g_IRReceiverIRQ_Cnt                      int

address     size       variable name                            type
0x20001f50  0x220      g_IRReceiverIRQ_Timers                   array[68] of uint64_t

address     size       variable name                            type
0x20001ed0  0x80       g_KeysBuf                                array[128] of unsigned char

address     size       variable name                            type
0x2000009c  0x4        g_KeysBuf_R                              int

address     size       variable name                            type
0x200000a0  0x4        g_KeysBuf_W                              int

address     size       variable name                            type
0x0800471a  0x800      ascii_font                               array[128] of array[16] of const uint8_t

address     size       variable name                            type
0x20000090  0x4        g_pHI2COLED                              pointer to I2C_HandleTypeDef

address     size       variable name                            type
0x2000008c  0x1        mem_mode                                 MEM_MODE

address     size       variable name                            type
0x20000080  0x1        ucMaxSysCallPriority                     uint8_t

address     size       variable name                            type
0x20000088  0x4        ulMaxPRIGROUPValue                       uint32_t

address     size       variable name                            type
0x20000084  0x4        uxCriticalNesting                        UBaseType_t

address     size       variable name                            type
0x20000068  0x4        pxEnd                                    pointer to BlockLink_t

address     size       variable name                            type
0x200012d0  0xc00      ucHeap                                   array[3072] of uint8_t

address     size       variable name                            type
0x20000074  0x4        xBlockAllocatedBit                       size_t

address     size       variable name                            type
0x2000006c  0x4        xFreeBytesRemaining                      size_t

address     size       variable name                            type
0x20000070  0x4        xMinimumEverFreeBytesRemaining           size_t

address     size       variable name                            type
0x20000078  0x8        xStart                                   BlockLink_t
0x20000078  0x4        xStart.pxNextFreeBlock                   pointer to A_BLOCK_LINK
0x2000007c  0x4        xStart.xBlockSize                        size_t

address     size       variable name                            type
0x20000c74  0x200      Idle_Stack                               array[128] of StackType_t

address     size       variable name                            type
0x20000c18  0x5c       Idle_TCB                                 StaticTask_t
0x20000c18  0x4        Idle_TCB.pxDummy1                        pointer to unknown Type 
0x20000c1c  0x28       Idle_TCB.xDummy3                         array[2] of StaticListItem_t
0x20000c44  0x4        Idle_TCB.uxDummy5                        UBaseType_t
0x20000c48  0x4        Idle_TCB.pxDummy6                        pointer to unknown Type 
0x20000c4c  0x10       Idle_TCB.ucDummy7                        array[16] of uint8_t
0x20000c5c  0x8        Idle_TCB.uxDummy10                       array[2] of UBaseType_t
0x20000c64  0x8        Idle_TCB.uxDummy12                       array[2] of UBaseType_t
0x20000c6c  0x4        Idle_TCB.ulDummy18                       uint32_t
0x20000c70  0x1        Idle_TCB.ucDummy19                       uint8_t
0x20000c71  0x1        Idle_TCB.uxDummy20                       uint8_t

address     size       variable name                            type
0x20000064  0x4        KernelState                              osKernelState_t

address     size       variable name                            type
0x20000ed0  0x400      Timer_Stack                              array[256] of StackType_t

address     size       variable name                            type
0x20000e74  0x5c       Timer_TCB                                StaticTask_t
0x20000e74  0x4        Timer_TCB.pxDummy1                       pointer to unknown Type 
0x20000e78  0x28       Timer_TCB.xDummy3                        array[2] of StaticListItem_t
0x20000ea0  0x4        Timer_TCB.uxDummy5                       UBaseType_t
0x20000ea4  0x4        Timer_TCB.pxDummy6                       pointer to unknown Type 
0x20000ea8  0x10       Timer_TCB.ucDummy7                       array[16] of uint8_t
0x20000eb8  0x8        Timer_TCB.uxDummy10                      array[2] of UBaseType_t
0x20000ec0  0x8        Timer_TCB.uxDummy12                      array[2] of UBaseType_t
0x20000ec8  0x4        Timer_TCB.ulDummy18                      uint32_t
0x20000ecc  0x1        Timer_TCB.ucDummy19                      uint8_t
0x20000ecd  0x1        Timer_TCB.uxDummy20                      uint8_t

address     size       variable name                            type
0x20000050  0x4        pxCurrentTimerList                       pointer to List_t

address     size       variable name                            type
0x20000054  0x4        pxOverflowTimerList                      pointer to List_t

address     size       variable name                            type
0x20000b00  0x14       xActiveTimerList1                        List_t
0x20000b00  0x4        xActiveTimerList1.uxNumberOfItems        volatile UBaseType_t
0x20000b04  0x4        xActiveTimerList1.pxIndex                pointer to ListItem_t
0x20000b08  0xc        xActiveTimerList1.xListEnd               MiniListItem_t
0x20000b08  0x4        xActiveTimerList1.xListEnd.xItemValue    TickType_t
0x20000b0c  0x4        xActiveTimerList1.xListEnd.pxNext        pointer to xLIST_ITEM
0x20000b10  0x4        xActiveTimerList1.xListEnd.pxPrevious    pointer to xLIST_ITEM

address     size       variable name                            type
0x20000b14  0x14       xActiveTimerList2                        List_t
0x20000b14  0x4        xActiveTimerList2.uxNumberOfItems        volatile UBaseType_t
0x20000b18  0x4        xActiveTimerList2.pxIndex                pointer to ListItem_t
0x20000b1c  0xc        xActiveTimerList2.xListEnd               MiniListItem_t
0x20000b1c  0x4        xActiveTimerList2.xListEnd.xItemValue    TickType_t
0x20000b20  0x4        xActiveTimerList2.xListEnd.pxNext        pointer to xLIST_ITEM
0x20000b24  0x4        xActiveTimerList2.xListEnd.pxPrevious    pointer to xLIST_ITEM

address     size       variable name                            type
0x20000058  0x4        xTimerQueue                              QueueHandle_t

address     size       variable name                            type
0x2000005c  0x4        xTimerTaskHandle                         TaskHandle_t

address     size       variable name                            type
0x20000014  0x4        pxCurrentTCB                             volatile pointer to TCB_t

address     size       variable name                            type
0x20000018  0x4        pxDelayedTaskList                        volatile pointer to List_t

address     size       variable name                            type
0x2000001c  0x4        pxOverflowDelayedTaskList                volatile pointer to List_t

address     size       variable name                            type
0x2000063c  0x460      pxReadyTasksLists                        array[56] of List_t

address     size       variable name                            type
0x20000024  0x4        uxCurrentNumberOfTasks                   volatile UBaseType_t

address     size       variable name                            type
0x20000020  0x4        uxDeletedTasksWaitingCleanUp             volatile UBaseType_t

address     size       variable name                            type
0x20000034  0x4        uxPendedTicks                            volatile UBaseType_t

address     size       variable name                            type
0x2000004c  0x4        uxSchedulerSuspended                     volatile UBaseType_t

address     size       variable name                            type
0x20000040  0x4        uxTaskNumber                             UBaseType_t

address     size       variable name                            type
0x2000002c  0x4        uxTopReadyPriority                       volatile UBaseType_t

address     size       variable name                            type
0x20000a9c  0x14       xDelayedTaskList1                        List_t
0x20000a9c  0x4        xDelayedTaskList1.uxNumberOfItems        volatile UBaseType_t
0x20000aa0  0x4        xDelayedTaskList1.pxIndex                pointer to ListItem_t
0x20000aa4  0xc        xDelayedTaskList1.xListEnd               MiniListItem_t
0x20000aa4  0x4        xDelayedTaskList1.xListEnd.xItemValue    TickType_t
0x20000aa8  0x4        xDelayedTaskList1.xListEnd.pxNext        pointer to xLIST_ITEM
0x20000aac  0x4        xDelayedTaskList1.xListEnd.pxPrevious    pointer to xLIST_ITEM

address     size       variable name                            type
0x20000ab0  0x14       xDelayedTaskList2                        List_t
0x20000ab0  0x4        xDelayedTaskList2.uxNumberOfItems        volatile UBaseType_t
0x20000ab4  0x4        xDelayedTaskList2.pxIndex                pointer to ListItem_t
0x20000ab8  0xc        xDelayedTaskList2.xListEnd               MiniListItem_t
0x20000ab8  0x4        xDelayedTaskList2.xListEnd.xItemValue    TickType_t
0x20000abc  0x4        xDelayedTaskList2.xListEnd.pxNext        pointer to xLIST_ITEM
0x20000ac0  0x4        xDelayedTaskList2.xListEnd.pxPrevious    pointer to xLIST_ITEM

address     size       variable name                            type
0x20000048  0x4        xIdleTaskHandle                          TaskHandle_t

address     size       variable name                            type
0x20000044  0x4        xNextTaskUnblockTime                     volatile TickType_t

address     size       variable name                            type
0x2000003c  0x4        xNumOfOverflows                          volatile BaseType_t

address     size       variable name                            type
0x20000ac4  0x14       xPendingReadyList                        List_t
0x20000ac4  0x4        xPendingReadyList.uxNumberOfItems        volatile UBaseType_t
0x20000ac8  0x4        xPendingReadyList.pxIndex                pointer to ListItem_t
0x20000acc  0xc        xPendingReadyList.xListEnd               MiniListItem_t
0x20000acc  0x4        xPendingReadyList.xListEnd.xItemValue    TickType_t
0x20000ad0  0x4        xPendingReadyList.xListEnd.pxNext        pointer to xLIST_ITEM
0x20000ad4  0x4        xPendingReadyList.xListEnd.pxPrevious    pointer to xLIST_ITEM

address     size       variable name                            type
0x20000030  0x4        xSchedulerRunning                        volatile BaseType_t

address     size       variable name                            type
0x20000aec  0x14       xSuspendedTaskList                       List_t
0x20000aec  0x4        xSuspendedTaskList.uxNumberOfItems       volatile UBaseType_t
0x20000af0  0x4        xSuspendedTaskList.pxIndex               pointer to ListItem_t
0x20000af4  0xc        xSuspendedTaskList.xListEnd              MiniListItem_t
0x20000af4  0x4        xSuspendedTaskList.xListEnd.xItemValue   TickType_t
0x20000af8  0x4        xSuspendedTaskList.xListEnd.pxNext       pointer to xLIST_ITEM
0x20000afc  0x4        xSuspendedTaskList.xListEnd.pxPrevious   pointer to xLIST_ITEM

address     size       variable name                            type
0x20000ad8  0x14       xTasksWaitingTermination                 List_t
0x20000ad8  0x4        xTasksWaitingTermination.uxNumberOfItems volatile UBaseType_t
0x20000adc  0x4        xTasksWaitingTermination.pxIndex         pointer to ListItem_t
0x20000ae0  0xc        xTasksWaitingTermination.xListEnd        MiniListItem_t
0x20000ae0  0x4        xTasksWaitingTermination.xListEnd.xItemValue TickType_t
0x20000ae4  0x4        xTasksWaitingTermination.xListEnd.pxNext pointer to xLIST_ITEM
0x20000ae8  0x4        xTasksWaitingTermination.xListEnd.pxPrevious pointer to xLIST_ITEM

address     size       variable name                            type
0x20000028  0x4        xTickCount                               volatile TickType_t

address     size       variable name                            type
0x20000038  0x4        xYieldPending                            volatile BaseType_t

address     size       variable name                            type
0x200005fc  0x40       xQueueRegistry                           array[8] of QueueRegistryItem_t

address     size       variable name                            type
0x08004702  0x10       AHBPrescTable                            array[16] of const uint8_t

address     size       variable name                            type
0x08004712  0x8        APBPrescTable                            array[8] of const uint8_t

address     size       variable name                            type
0x20000010  0x4        SystemCoreClock                          uint32_t

address     size       variable name                            type
0x2000000c  0x4        uwTick                                   volatile uint32_t

address     size       variable name                            type
0x20000004  0x1        uwTickFreq                               HAL_TickFreqTypeDef

address     size       variable name                            type
0x20000008  0x4        uwTickPrio                               uint32_t

address     size       variable name                            type
0x200005b4  0x48       htim4                                    TIM_HandleTypeDef
0x200005b4  0x4        htim4.Instance                           pointer to TIM_TypeDef
0x200005b8  0x18       htim4.Init                               TIM_Base_InitTypeDef
0x200005b8  0x4        htim4.Init.Prescaler                     uint32_t
0x200005bc  0x4        htim4.Init.CounterMode                   uint32_t
0x200005c0  0x4        htim4.Init.Period                        uint32_t
0x200005c4  0x4        htim4.Init.ClockDivision                 uint32_t
0x200005c8  0x4        htim4.Init.RepetitionCounter             uint32_t
0x200005cc  0x4        htim4.Init.AutoReloadPreload             uint32_t
0x200005d0  0x1      * htim4.Channel                            HAL_TIM_ActiveChannel
0x200005d4  0x1c       htim4.hdma                               array[7] of pointer to DMA_HandleTypeDef
0x200005f0  0x1        htim4.Lock                               HAL_LockTypeDef
0x200005f1  0x1        htim4.State                              volatile HAL_TIM_StateTypeDef
0x200005f2  0x4        htim4.ChannelState                       array[4] of volatile HAL_TIM_ChannelStateTypeDef
0x200005f6  0x4        htim4.ChannelNState                      array[4] of volatile HAL_TIM_ChannelStateTypeDef
0x200005fa  0x1        htim4.DMABurstState                      volatile HAL_TIM_DMABurstStateTypeDef

address     size       variable name                            type
0x200002c4  0x2f0      hpcd_USB_FS                              PCD_HandleTypeDef
0x200002c4  0x4        hpcd_USB_FS.Instance                     pointer to PCD_TypeDef
0x200002c8  0x20       hpcd_USB_FS.Init                         PCD_InitTypeDef
0x200002c8  0x4        hpcd_USB_FS.Init.dev_endpoints           uint32_t
0x200002cc  0x4        hpcd_USB_FS.Init.speed                   uint32_t
0x200002d0  0x4        hpcd_USB_FS.Init.ep0_mps                 uint32_t
0x200002d4  0x4        hpcd_USB_FS.Init.phy_itface              uint32_t
0x200002d8  0x4        hpcd_USB_FS.Init.Sof_enable              uint32_t
0x200002dc  0x4        hpcd_USB_FS.Init.low_power_enable        uint32_t
0x200002e0  0x4        hpcd_USB_FS.Init.lpm_enable              uint32_t
0x200002e4  0x4        hpcd_USB_FS.Init.battery_charging_enable uint32_t
0x200002e8  0x1      * hpcd_USB_FS.USB_Address                  volatile uint8_t
0x200002ec  0x140      hpcd_USB_FS.IN_ep                        array[8] of PCD_EPTypeDef
0x2000042c  0x140      hpcd_USB_FS.OUT_ep                       array[8] of PCD_EPTypeDef
0x2000056c  0x1        hpcd_USB_FS.Lock                         HAL_LockTypeDef
0x2000056d  0x1      * hpcd_USB_FS.State                        volatile PCD_StateTypeDef
0x20000570  0x4        hpcd_USB_FS.ErrorCode                    volatile uint32_t
0x20000574  0x30       hpcd_USB_FS.Setup                        array[12] of uint32_t
0x200005a4  0x1      * hpcd_USB_FS.LPM_State                    PCD_LPM_StateTypeDef
0x200005a8  0x4        hpcd_USB_FS.BESL                         uint32_t
0x200005ac  0x4        hpcd_USB_FS.FrameNumber                  uint32_t
0x200005b0  0x4        hpcd_USB_FS.pData                        pointer to unknown Type 

address     size       variable name                            type
0x2000027c  0x48       huart1                                   UART_HandleTypeDef
0x2000027c  0x4        huart1.Instance                          pointer to USART_TypeDef
0x20000280  0x1c       huart1.Init                              UART_InitTypeDef
0x20000280  0x4        huart1.Init.BaudRate                     uint32_t
0x20000284  0x4        huart1.Init.WordLength                   uint32_t
0x20000288  0x4        huart1.Init.StopBits                     uint32_t
0x2000028c  0x4        huart1.Init.Parity                       uint32_t
0x20000290  0x4        huart1.Init.Mode                         uint32_t
0x20000294  0x4        huart1.Init.HwFlowCtl                    uint32_t
0x20000298  0x4        huart1.Init.OverSampling                 uint32_t
0x2000029c  0x4        huart1.pTxBuffPtr                        pointer to const uint8_t
0x200002a0  0x2        huart1.TxXferSize                        uint16_t
0x200002a2  0x2        huart1.TxXferCount                       volatile uint16_t
0x200002a4  0x4        huart1.pRxBuffPtr                        pointer to uint8_t
0x200002a8  0x2        huart1.RxXferSize                        uint16_t
0x200002aa  0x2        huart1.RxXferCount                       volatile uint16_t
0x200002ac  0x4        huart1.ReceptionType                     volatile HAL_UART_RxTypeTypeDef
0x200002b0  0x4        huart1.RxEventType                       volatile HAL_UART_RxEventTypeTypeDef
0x200002b4  0x4        huart1.hdmatx                            pointer to DMA_HandleTypeDef
0x200002b8  0x4        huart1.hdmarx                            pointer to DMA_HandleTypeDef
0x200002bc  0x1        huart1.Lock                              HAL_LockTypeDef
0x200002bd  0x1        huart1.gState                            volatile HAL_UART_StateTypeDef
0x200002be  0x1      * huart1.RxState                           volatile HAL_UART_StateTypeDef
0x200002c0  0x4        huart1.ErrorCode                         volatile uint32_t

address     size       variable name                            type
0x200001a4  0x48       htim1                                    TIM_HandleTypeDef
0x200001a4  0x4        htim1.Instance                           pointer to TIM_TypeDef
0x200001a8  0x18       htim1.Init                               TIM_Base_InitTypeDef
0x200001a8  0x4        htim1.Init.Prescaler                     uint32_t
0x200001ac  0x4        htim1.Init.CounterMode                   uint32_t
0x200001b0  0x4        htim1.Init.Period                        uint32_t
0x200001b4  0x4        htim1.Init.ClockDivision                 uint32_t
0x200001b8  0x4        htim1.Init.RepetitionCounter             uint32_t
0x200001bc  0x4        htim1.Init.AutoReloadPreload             uint32_t
0x200001c0  0x1      * htim1.Channel                            HAL_TIM_ActiveChannel
0x200001c4  0x1c       htim1.hdma                               array[7] of pointer to DMA_HandleTypeDef
0x200001e0  0x1        htim1.Lock                               HAL_LockTypeDef
0x200001e1  0x1        htim1.State                              volatile HAL_TIM_StateTypeDef
0x200001e2  0x4        htim1.ChannelState                       array[4] of volatile HAL_TIM_ChannelStateTypeDef
0x200001e6  0x4        htim1.ChannelNState                      array[4] of volatile HAL_TIM_ChannelStateTypeDef
0x200001ea  0x1        htim1.DMABurstState                      volatile HAL_TIM_DMABurstStateTypeDef

address     size       variable name                            type
0x200001ec  0x48       htim2                                    TIM_HandleTypeDef
0x200001ec  0x4        htim2.Instance                           pointer to TIM_TypeDef
0x200001f0  0x18       htim2.Init                               TIM_Base_InitTypeDef
0x200001f0  0x4        htim2.Init.Prescaler                     uint32_t
0x200001f4  0x4        htim2.Init.CounterMode                   uint32_t
0x200001f8  0x4        htim2.Init.Period                        uint32_t
0x200001fc  0x4        htim2.Init.ClockDivision                 uint32_t
0x20000200  0x4        htim2.Init.RepetitionCounter             uint32_t
0x20000204  0x4        htim2.Init.AutoReloadPreload             uint32_t
0x20000208  0x1      * htim2.Channel                            HAL_TIM_ActiveChannel
0x2000020c  0x1c       htim2.hdma                               array[7] of pointer to DMA_HandleTypeDef
0x20000228  0x1        htim2.Lock                               HAL_LockTypeDef
0x20000229  0x1        htim2.State                              volatile HAL_TIM_StateTypeDef
0x2000022a  0x4        htim2.ChannelState                       array[4] of volatile HAL_TIM_ChannelStateTypeDef
0x2000022e  0x4        htim2.ChannelNState                      array[4] of volatile HAL_TIM_ChannelStateTypeDef
0x20000232  0x1        htim2.DMABurstState                      volatile HAL_TIM_DMABurstStateTypeDef

address     size       variable name                            type
0x20000234  0x48       htim3                                    TIM_HandleTypeDef
0x20000234  0x4        htim3.Instance                           pointer to TIM_TypeDef
0x20000238  0x18       htim3.Init                               TIM_Base_InitTypeDef
0x20000238  0x4        htim3.Init.Prescaler                     uint32_t
0x2000023c  0x4        htim3.Init.CounterMode                   uint32_t
0x20000240  0x4        htim3.Init.Period                        uint32_t
0x20000244  0x4        htim3.Init.ClockDivision                 uint32_t
0x20000248  0x4        htim3.Init.RepetitionCounter             uint32_t
0x2000024c  0x4        htim3.Init.AutoReloadPreload             uint32_t
0x20000250  0x1      * htim3.Channel                            HAL_TIM_ActiveChannel
0x20000254  0x1c       htim3.hdma                               array[7] of pointer to DMA_HandleTypeDef
0x20000270  0x1        htim3.Lock                               HAL_LockTypeDef
0x20000271  0x1        htim3.State                              volatile HAL_TIM_StateTypeDef
0x20000272  0x4        htim3.ChannelState                       array[4] of volatile HAL_TIM_ChannelStateTypeDef
0x20000276  0x4        htim3.ChannelNState                      array[4] of volatile HAL_TIM_ChannelStateTypeDef
0x2000027a  0x1        htim3.DMABurstState                      volatile HAL_TIM_DMABurstStateTypeDef

address     size       variable name                            type
0x2000014c  0x58       hspi1                                    SPI_HandleTypeDef
0x2000014c  0x4        hspi1.Instance                           pointer to SPI_TypeDef
0x20000150  0x2c       hspi1.Init                               SPI_InitTypeDef
0x20000150  0x4        hspi1.Init.Mode                          uint32_t
0x20000154  0x4        hspi1.Init.Direction                     uint32_t
0x20000158  0x4        hspi1.Init.DataSize                      uint32_t
0x2000015c  0x4        hspi1.Init.CLKPolarity                   uint32_t
0x20000160  0x4        hspi1.Init.CLKPhase                      uint32_t
0x20000164  0x4        hspi1.Init.NSS                           uint32_t
0x20000168  0x4        hspi1.Init.BaudRatePrescaler             uint32_t
0x2000016c  0x4        hspi1.Init.FirstBit                      uint32_t
0x20000170  0x4        hspi1.Init.TIMode                        uint32_t
0x20000174  0x4        hspi1.Init.CRCCalculation                uint32_t
0x20000178  0x4        hspi1.Init.CRCPolynomial                 uint32_t
0x2000017c  0x4        hspi1.pTxBuffPtr                         pointer to uint8_t
0x20000180  0x2        hspi1.TxXferSize                         uint16_t
0x20000182  0x2        hspi1.TxXferCount                        volatile uint16_t
0x20000184  0x4        hspi1.pRxBuffPtr                         pointer to uint8_t
0x20000188  0x2        hspi1.RxXferSize                         uint16_t
0x2000018a  0x2        hspi1.RxXferCount                        volatile uint16_t
0x2000018c  0x4        hspi1.RxISR                              pointer to function 
0x20000190  0x4        hspi1.TxISR                              pointer to function 
0x20000194  0x4        hspi1.hdmatx                             pointer to DMA_HandleTypeDef
0x20000198  0x4        hspi1.hdmarx                             pointer to DMA_HandleTypeDef
0x2000019c  0x1        hspi1.Lock                               HAL_LockTypeDef
0x2000019d  0x1      * hspi1.State                              volatile HAL_SPI_StateTypeDef
0x200001a0  0x4        hspi1.ErrorCode                          volatile uint32_t

address     size       variable name                            type
0x200000f8  0x54       hi2c1                                    I2C_HandleTypeDef
0x200000f8  0x4        hi2c1.Instance                           pointer to I2C_TypeDef
0x200000fc  0x20       hi2c1.Init                               I2C_InitTypeDef
0x200000fc  0x4        hi2c1.Init.ClockSpeed                    uint32_t
0x20000100  0x4        hi2c1.Init.DutyCycle                     uint32_t
0x20000104  0x4        hi2c1.Init.OwnAddress1                   uint32_t
0x20000108  0x4        hi2c1.Init.AddressingMode                uint32_t
0x2000010c  0x4        hi2c1.Init.DualAddressMode               uint32_t
0x20000110  0x4        hi2c1.Init.OwnAddress2                   uint32_t
0x20000114  0x4        hi2c1.Init.GeneralCallMode               uint32_t
0x20000118  0x4        hi2c1.Init.NoStretchMode                 uint32_t
0x2000011c  0x4        hi2c1.pBuffPtr                           pointer to uint8_t
0x20000120  0x2        hi2c1.XferSize                           uint16_t
0x20000122  0x2        hi2c1.XferCount                          volatile uint16_t
0x20000124  0x4        hi2c1.XferOptions                        volatile uint32_t
0x20000128  0x4        hi2c1.PreviousState                      volatile uint32_t
0x2000012c  0x4        hi2c1.hdmatx                             pointer to DMA_HandleTypeDef
0x20000130  0x4        hi2c1.hdmarx                             pointer to DMA_HandleTypeDef
0x20000134  0x1        hi2c1.Lock                               HAL_LockTypeDef
0x20000135  0x1        hi2c1.State                              volatile HAL_I2C_StateTypeDef
0x20000136  0x1      * hi2c1.Mode                               volatile HAL_I2C_ModeTypeDef
0x20000138  0x4        hi2c1.ErrorCode                          volatile uint32_t
0x2000013c  0x4        hi2c1.Devaddress                         volatile uint32_t
0x20000140  0x4        hi2c1.Memaddress                         volatile uint32_t
0x20000144  0x4        hi2c1.MemaddSize                         volatile uint32_t
0x20000148  0x4        hi2c1.EventCount                         volatile uint32_t

address     size       variable name                            type
0x200000c8  0x30       hadc1                                    ADC_HandleTypeDef
0x200000c8  0x4        hadc1.Instance                           pointer to ADC_TypeDef
0x200000cc  0x1c       hadc1.Init                               ADC_InitTypeDef
0x200000cc  0x4        hadc1.Init.DataAlign                     uint32_t
0x200000d0  0x4        hadc1.Init.ScanConvMode                  uint32_t
0x200000d4  0x1      * hadc1.Init.ContinuousConvMode            FunctionalState
0x200000d8  0x4        hadc1.Init.NbrOfConversion               uint32_t
0x200000dc  0x1      * hadc1.Init.DiscontinuousConvMode         FunctionalState
0x200000e0  0x4        hadc1.Init.NbrOfDiscConversion           uint32_t
0x200000e4  0x4        hadc1.Init.ExternalTrigConv              uint32_t
0x200000e8  0x4        hadc1.DMA_Handle                         pointer to DMA_HandleTypeDef
0x200000ec  0x1      * hadc1.Lock                               HAL_LockTypeDef
0x200000f0  0x4        hadc1.State                              volatile uint32_t
0x200000f4  0x4        hadc1.ErrorCode                          volatile uint32_t

address     size       variable name                            type
0x20000000  0x4        defaultTaskHandle                        osThreadId_t

address     size       variable name                            type
0x080046cc  0x24       defaultTask_attributes                   const osThreadAttr_t
0x080046cc  0x4        defaultTask_attributes.name              pointer to const char
0x080046d0  0x4        defaultTask_attributes.attr_bits         uint32_t
0x080046d4  0x4        defaultTask_attributes.cb_mem            pointer to unknown Type 
0x080046d8  0x4        defaultTask_attributes.cb_size           uint32_t
0x080046dc  0x4        defaultTask_attributes.stack_mem         pointer to unknown Type 
0x080046e0  0x4        defaultTask_attributes.stack_size        uint32_t
0x080046e4  0x4        defaultTask_attributes.priority          osPriority_t
0x080046e8  0x4        defaultTask_attributes.tz_module         TZ_ModuleId_t
0x080046ec  0x4        defaultTask_attributes.reserved          uint32_t

